
rtarget:     file format elf64-x86-64


Disassembly of section .init:

0000000000400c60 <_init>:
  400c60:	48 83 ec 08          	sub    $0x8,%rsp
  400c64:	48 8b 05 8d 43 20 00 	mov    0x20438d(%rip),%rax        # 604ff8 <_DYNAMIC+0x1d0>
  400c6b:	48 85 c0             	test   %rax,%rax
  400c6e:	74 05                	je     400c75 <_init+0x15>
  400c70:	e8 2b 01 00 00       	callq  400da0 <__gmon_start__@plt>
  400c75:	48 83 c4 08          	add    $0x8,%rsp
  400c79:	c3                   	retq   

Disassembly of section .plt:

0000000000400c80 <strcasecmp@plt-0x10>:
  400c80:	ff 35 82 43 20 00    	pushq  0x204382(%rip)        # 605008 <_GLOBAL_OFFSET_TABLE_+0x8>
  400c86:	ff 25 84 43 20 00    	jmpq   *0x204384(%rip)        # 605010 <_GLOBAL_OFFSET_TABLE_+0x10>
  400c8c:	0f 1f 40 00          	nopl   0x0(%rax)

0000000000400c90 <strcasecmp@plt>:
  400c90:	ff 25 82 43 20 00    	jmpq   *0x204382(%rip)        # 605018 <_GLOBAL_OFFSET_TABLE_+0x18>
  400c96:	68 00 00 00 00       	pushq  $0x0
  400c9b:	e9 e0 ff ff ff       	jmpq   400c80 <_init+0x20>

0000000000400ca0 <__errno_location@plt>:
  400ca0:	ff 25 7a 43 20 00    	jmpq   *0x20437a(%rip)        # 605020 <_GLOBAL_OFFSET_TABLE_+0x20>
  400ca6:	68 01 00 00 00       	pushq  $0x1
  400cab:	e9 d0 ff ff ff       	jmpq   400c80 <_init+0x20>

0000000000400cb0 <srandom@plt>:
  400cb0:	ff 25 72 43 20 00    	jmpq   *0x204372(%rip)        # 605028 <_GLOBAL_OFFSET_TABLE_+0x28>
  400cb6:	68 02 00 00 00       	pushq  $0x2
  400cbb:	e9 c0 ff ff ff       	jmpq   400c80 <_init+0x20>

0000000000400cc0 <strncmp@plt>:
  400cc0:	ff 25 6a 43 20 00    	jmpq   *0x20436a(%rip)        # 605030 <_GLOBAL_OFFSET_TABLE_+0x30>
  400cc6:	68 03 00 00 00       	pushq  $0x3
  400ccb:	e9 b0 ff ff ff       	jmpq   400c80 <_init+0x20>

0000000000400cd0 <strcpy@plt>:
  400cd0:	ff 25 62 43 20 00    	jmpq   *0x204362(%rip)        # 605038 <_GLOBAL_OFFSET_TABLE_+0x38>
  400cd6:	68 04 00 00 00       	pushq  $0x4
  400cdb:	e9 a0 ff ff ff       	jmpq   400c80 <_init+0x20>

0000000000400ce0 <puts@plt>:
  400ce0:	ff 25 5a 43 20 00    	jmpq   *0x20435a(%rip)        # 605040 <_GLOBAL_OFFSET_TABLE_+0x40>
  400ce6:	68 05 00 00 00       	pushq  $0x5
  400ceb:	e9 90 ff ff ff       	jmpq   400c80 <_init+0x20>

0000000000400cf0 <write@plt>:
  400cf0:	ff 25 52 43 20 00    	jmpq   *0x204352(%rip)        # 605048 <_GLOBAL_OFFSET_TABLE_+0x48>
  400cf6:	68 06 00 00 00       	pushq  $0x6
  400cfb:	e9 80 ff ff ff       	jmpq   400c80 <_init+0x20>

0000000000400d00 <__stack_chk_fail@plt>:
  400d00:	ff 25 4a 43 20 00    	jmpq   *0x20434a(%rip)        # 605050 <_GLOBAL_OFFSET_TABLE_+0x50>
  400d06:	68 07 00 00 00       	pushq  $0x7
  400d0b:	e9 70 ff ff ff       	jmpq   400c80 <_init+0x20>

0000000000400d10 <mmap@plt>:
  400d10:	ff 25 42 43 20 00    	jmpq   *0x204342(%rip)        # 605058 <_GLOBAL_OFFSET_TABLE_+0x58>
  400d16:	68 08 00 00 00       	pushq  $0x8
  400d1b:	e9 60 ff ff ff       	jmpq   400c80 <_init+0x20>

0000000000400d20 <memset@plt>:
  400d20:	ff 25 3a 43 20 00    	jmpq   *0x20433a(%rip)        # 605060 <_GLOBAL_OFFSET_TABLE_+0x60>
  400d26:	68 09 00 00 00       	pushq  $0x9
  400d2b:	e9 50 ff ff ff       	jmpq   400c80 <_init+0x20>

0000000000400d30 <alarm@plt>:
  400d30:	ff 25 32 43 20 00    	jmpq   *0x204332(%rip)        # 605068 <_GLOBAL_OFFSET_TABLE_+0x68>
  400d36:	68 0a 00 00 00       	pushq  $0xa
  400d3b:	e9 40 ff ff ff       	jmpq   400c80 <_init+0x20>

0000000000400d40 <close@plt>:
  400d40:	ff 25 2a 43 20 00    	jmpq   *0x20432a(%rip)        # 605070 <_GLOBAL_OFFSET_TABLE_+0x70>
  400d46:	68 0b 00 00 00       	pushq  $0xb
  400d4b:	e9 30 ff ff ff       	jmpq   400c80 <_init+0x20>

0000000000400d50 <read@plt>:
  400d50:	ff 25 22 43 20 00    	jmpq   *0x204322(%rip)        # 605078 <_GLOBAL_OFFSET_TABLE_+0x78>
  400d56:	68 0c 00 00 00       	pushq  $0xc
  400d5b:	e9 20 ff ff ff       	jmpq   400c80 <_init+0x20>

0000000000400d60 <__libc_start_main@plt>:
  400d60:	ff 25 1a 43 20 00    	jmpq   *0x20431a(%rip)        # 605080 <_GLOBAL_OFFSET_TABLE_+0x80>
  400d66:	68 0d 00 00 00       	pushq  $0xd
  400d6b:	e9 10 ff ff ff       	jmpq   400c80 <_init+0x20>

0000000000400d70 <signal@plt>:
  400d70:	ff 25 12 43 20 00    	jmpq   *0x204312(%rip)        # 605088 <_GLOBAL_OFFSET_TABLE_+0x88>
  400d76:	68 0e 00 00 00       	pushq  $0xe
  400d7b:	e9 00 ff ff ff       	jmpq   400c80 <_init+0x20>

0000000000400d80 <gethostbyname@plt>:
  400d80:	ff 25 0a 43 20 00    	jmpq   *0x20430a(%rip)        # 605090 <_GLOBAL_OFFSET_TABLE_+0x90>
  400d86:	68 0f 00 00 00       	pushq  $0xf
  400d8b:	e9 f0 fe ff ff       	jmpq   400c80 <_init+0x20>

0000000000400d90 <__memmove_chk@plt>:
  400d90:	ff 25 02 43 20 00    	jmpq   *0x204302(%rip)        # 605098 <_GLOBAL_OFFSET_TABLE_+0x98>
  400d96:	68 10 00 00 00       	pushq  $0x10
  400d9b:	e9 e0 fe ff ff       	jmpq   400c80 <_init+0x20>

0000000000400da0 <__gmon_start__@plt>:
  400da0:	ff 25 fa 42 20 00    	jmpq   *0x2042fa(%rip)        # 6050a0 <_GLOBAL_OFFSET_TABLE_+0xa0>
  400da6:	68 11 00 00 00       	pushq  $0x11
  400dab:	e9 d0 fe ff ff       	jmpq   400c80 <_init+0x20>

0000000000400db0 <strtol@plt>:
  400db0:	ff 25 f2 42 20 00    	jmpq   *0x2042f2(%rip)        # 6050a8 <_GLOBAL_OFFSET_TABLE_+0xa8>
  400db6:	68 12 00 00 00       	pushq  $0x12
  400dbb:	e9 c0 fe ff ff       	jmpq   400c80 <_init+0x20>

0000000000400dc0 <memcpy@plt>:
  400dc0:	ff 25 ea 42 20 00    	jmpq   *0x2042ea(%rip)        # 6050b0 <_GLOBAL_OFFSET_TABLE_+0xb0>
  400dc6:	68 13 00 00 00       	pushq  $0x13
  400dcb:	e9 b0 fe ff ff       	jmpq   400c80 <_init+0x20>

0000000000400dd0 <time@plt>:
  400dd0:	ff 25 e2 42 20 00    	jmpq   *0x2042e2(%rip)        # 6050b8 <_GLOBAL_OFFSET_TABLE_+0xb8>
  400dd6:	68 14 00 00 00       	pushq  $0x14
  400ddb:	e9 a0 fe ff ff       	jmpq   400c80 <_init+0x20>

0000000000400de0 <random@plt>:
  400de0:	ff 25 da 42 20 00    	jmpq   *0x2042da(%rip)        # 6050c0 <_GLOBAL_OFFSET_TABLE_+0xc0>
  400de6:	68 15 00 00 00       	pushq  $0x15
  400deb:	e9 90 fe ff ff       	jmpq   400c80 <_init+0x20>

0000000000400df0 <_IO_getc@plt>:
  400df0:	ff 25 d2 42 20 00    	jmpq   *0x2042d2(%rip)        # 6050c8 <_GLOBAL_OFFSET_TABLE_+0xc8>
  400df6:	68 16 00 00 00       	pushq  $0x16
  400dfb:	e9 80 fe ff ff       	jmpq   400c80 <_init+0x20>

0000000000400e00 <__isoc99_sscanf@plt>:
  400e00:	ff 25 ca 42 20 00    	jmpq   *0x2042ca(%rip)        # 6050d0 <_GLOBAL_OFFSET_TABLE_+0xd0>
  400e06:	68 17 00 00 00       	pushq  $0x17
  400e0b:	e9 70 fe ff ff       	jmpq   400c80 <_init+0x20>

0000000000400e10 <munmap@plt>:
  400e10:	ff 25 c2 42 20 00    	jmpq   *0x2042c2(%rip)        # 6050d8 <_GLOBAL_OFFSET_TABLE_+0xd8>
  400e16:	68 18 00 00 00       	pushq  $0x18
  400e1b:	e9 60 fe ff ff       	jmpq   400c80 <_init+0x20>

0000000000400e20 <__printf_chk@plt>:
  400e20:	ff 25 ba 42 20 00    	jmpq   *0x2042ba(%rip)        # 6050e0 <_GLOBAL_OFFSET_TABLE_+0xe0>
  400e26:	68 19 00 00 00       	pushq  $0x19
  400e2b:	e9 50 fe ff ff       	jmpq   400c80 <_init+0x20>

0000000000400e30 <fopen@plt>:
  400e30:	ff 25 b2 42 20 00    	jmpq   *0x2042b2(%rip)        # 6050e8 <_GLOBAL_OFFSET_TABLE_+0xe8>
  400e36:	68 1a 00 00 00       	pushq  $0x1a
  400e3b:	e9 40 fe ff ff       	jmpq   400c80 <_init+0x20>

0000000000400e40 <getopt@plt>:
  400e40:	ff 25 aa 42 20 00    	jmpq   *0x2042aa(%rip)        # 6050f0 <_GLOBAL_OFFSET_TABLE_+0xf0>
  400e46:	68 1b 00 00 00       	pushq  $0x1b
  400e4b:	e9 30 fe ff ff       	jmpq   400c80 <_init+0x20>

0000000000400e50 <strtoul@plt>:
  400e50:	ff 25 a2 42 20 00    	jmpq   *0x2042a2(%rip)        # 6050f8 <_GLOBAL_OFFSET_TABLE_+0xf8>
  400e56:	68 1c 00 00 00       	pushq  $0x1c
  400e5b:	e9 20 fe ff ff       	jmpq   400c80 <_init+0x20>

0000000000400e60 <gethostname@plt>:
  400e60:	ff 25 9a 42 20 00    	jmpq   *0x20429a(%rip)        # 605100 <_GLOBAL_OFFSET_TABLE_+0x100>
  400e66:	68 1d 00 00 00       	pushq  $0x1d
  400e6b:	e9 10 fe ff ff       	jmpq   400c80 <_init+0x20>

0000000000400e70 <exit@plt>:
  400e70:	ff 25 92 42 20 00    	jmpq   *0x204292(%rip)        # 605108 <_GLOBAL_OFFSET_TABLE_+0x108>
  400e76:	68 1e 00 00 00       	pushq  $0x1e
  400e7b:	e9 00 fe ff ff       	jmpq   400c80 <_init+0x20>

0000000000400e80 <connect@plt>:
  400e80:	ff 25 8a 42 20 00    	jmpq   *0x20428a(%rip)        # 605110 <_GLOBAL_OFFSET_TABLE_+0x110>
  400e86:	68 1f 00 00 00       	pushq  $0x1f
  400e8b:	e9 f0 fd ff ff       	jmpq   400c80 <_init+0x20>

0000000000400e90 <__fprintf_chk@plt>:
  400e90:	ff 25 82 42 20 00    	jmpq   *0x204282(%rip)        # 605118 <_GLOBAL_OFFSET_TABLE_+0x118>
  400e96:	68 20 00 00 00       	pushq  $0x20
  400e9b:	e9 e0 fd ff ff       	jmpq   400c80 <_init+0x20>

0000000000400ea0 <__sprintf_chk@plt>:
  400ea0:	ff 25 7a 42 20 00    	jmpq   *0x20427a(%rip)        # 605120 <_GLOBAL_OFFSET_TABLE_+0x120>
  400ea6:	68 21 00 00 00       	pushq  $0x21
  400eab:	e9 d0 fd ff ff       	jmpq   400c80 <_init+0x20>

0000000000400eb0 <socket@plt>:
  400eb0:	ff 25 72 42 20 00    	jmpq   *0x204272(%rip)        # 605128 <_GLOBAL_OFFSET_TABLE_+0x128>
  400eb6:	68 22 00 00 00       	pushq  $0x22
  400ebb:	e9 c0 fd ff ff       	jmpq   400c80 <_init+0x20>

Disassembly of section .text:

0000000000400ec0 <_start>:
  400ec0:	31 ed                	xor    %ebp,%ebp
  400ec2:	49 89 d1             	mov    %rdx,%r9
  400ec5:	5e                   	pop    %rsi
  400ec6:	48 89 e2             	mov    %rsp,%rdx
  400ec9:	48 83 e4 f0          	and    $0xfffffffffffffff0,%rsp
  400ecd:	50                   	push   %rax
  400ece:	54                   	push   %rsp
  400ecf:	49 c7 c0 40 2f 40 00 	mov    $0x402f40,%r8
  400ed6:	48 c7 c1 d0 2e 40 00 	mov    $0x402ed0,%rcx
  400edd:	48 c7 c7 c5 11 40 00 	mov    $0x4011c5,%rdi
  400ee4:	e8 77 fe ff ff       	callq  400d60 <__libc_start_main@plt>
  400ee9:	f4                   	hlt    
  400eea:	66 0f 1f 44 00 00    	nopw   0x0(%rax,%rax,1)

0000000000400ef0 <deregister_tm_clones>:
  400ef0:	b8 b7 54 60 00       	mov    $0x6054b7,%eax
  400ef5:	55                   	push   %rbp
  400ef6:	48 2d b0 54 60 00    	sub    $0x6054b0,%rax
  400efc:	48 83 f8 0e          	cmp    $0xe,%rax
  400f00:	48 89 e5             	mov    %rsp,%rbp
  400f03:	76 1b                	jbe    400f20 <deregister_tm_clones+0x30>
  400f05:	b8 00 00 00 00       	mov    $0x0,%eax
  400f0a:	48 85 c0             	test   %rax,%rax
  400f0d:	74 11                	je     400f20 <deregister_tm_clones+0x30>
  400f0f:	5d                   	pop    %rbp
  400f10:	bf b0 54 60 00       	mov    $0x6054b0,%edi
  400f15:	ff e0                	jmpq   *%rax
  400f17:	66 0f 1f 84 00 00 00 	nopw   0x0(%rax,%rax,1)
  400f1e:	00 00 
  400f20:	5d                   	pop    %rbp
  400f21:	c3                   	retq   
  400f22:	66 66 66 66 66 2e 0f 	data32 data32 data32 data32 nopw %cs:0x0(%rax,%rax,1)
  400f29:	1f 84 00 00 00 00 00 

0000000000400f30 <register_tm_clones>:
  400f30:	be b0 54 60 00       	mov    $0x6054b0,%esi
  400f35:	55                   	push   %rbp
  400f36:	48 81 ee b0 54 60 00 	sub    $0x6054b0,%rsi
  400f3d:	48 c1 fe 03          	sar    $0x3,%rsi
  400f41:	48 89 e5             	mov    %rsp,%rbp
  400f44:	48 89 f0             	mov    %rsi,%rax
  400f47:	48 c1 e8 3f          	shr    $0x3f,%rax
  400f4b:	48 01 c6             	add    %rax,%rsi
  400f4e:	48 d1 fe             	sar    %rsi
  400f51:	74 15                	je     400f68 <register_tm_clones+0x38>
  400f53:	b8 00 00 00 00       	mov    $0x0,%eax
  400f58:	48 85 c0             	test   %rax,%rax
  400f5b:	74 0b                	je     400f68 <register_tm_clones+0x38>
  400f5d:	5d                   	pop    %rbp
  400f5e:	bf b0 54 60 00       	mov    $0x6054b0,%edi
  400f63:	ff e0                	jmpq   *%rax
  400f65:	0f 1f 00             	nopl   (%rax)
  400f68:	5d                   	pop    %rbp
  400f69:	c3                   	retq   
  400f6a:	66 0f 1f 44 00 00    	nopw   0x0(%rax,%rax,1)

0000000000400f70 <__do_global_dtors_aux>:
  400f70:	80 3d 79 45 20 00 00 	cmpb   $0x0,0x204579(%rip)        # 6054f0 <completed.7553>
  400f77:	75 11                	jne    400f8a <__do_global_dtors_aux+0x1a>
  400f79:	55                   	push   %rbp
  400f7a:	48 89 e5             	mov    %rsp,%rbp
  400f7d:	e8 6e ff ff ff       	callq  400ef0 <deregister_tm_clones>
  400f82:	5d                   	pop    %rbp
  400f83:	c6 05 66 45 20 00 01 	movb   $0x1,0x204566(%rip)        # 6054f0 <completed.7553>
  400f8a:	f3 c3                	repz retq 
  400f8c:	0f 1f 40 00          	nopl   0x0(%rax)

0000000000400f90 <frame_dummy>:
  400f90:	bf 20 4e 60 00       	mov    $0x604e20,%edi
  400f95:	48 83 3f 00          	cmpq   $0x0,(%rdi)
  400f99:	75 05                	jne    400fa0 <frame_dummy+0x10>
  400f9b:	eb 93                	jmp    400f30 <register_tm_clones>
  400f9d:	0f 1f 00             	nopl   (%rax)
  400fa0:	b8 00 00 00 00       	mov    $0x0,%eax
  400fa5:	48 85 c0             	test   %rax,%rax
  400fa8:	74 f1                	je     400f9b <frame_dummy+0xb>
  400faa:	55                   	push   %rbp
  400fab:	48 89 e5             	mov    %rsp,%rbp
  400fae:	ff d0                	callq  *%rax
  400fb0:	5d                   	pop    %rbp
  400fb1:	e9 7a ff ff ff       	jmpq   400f30 <register_tm_clones>

0000000000400fb6 <usage>:
  400fb6:	48 83 ec 08          	sub    $0x8,%rsp
  400fba:	48 89 fa             	mov    %rdi,%rdx
  400fbd:	83 3d 64 45 20 00 00 	cmpl   $0x0,0x204564(%rip)        # 605528 <is_checker>
  400fc4:	74 3e                	je     401004 <usage+0x4e>
  400fc6:	be 58 2f 40 00       	mov    $0x402f58,%esi
  400fcb:	bf 01 00 00 00       	mov    $0x1,%edi
  400fd0:	b8 00 00 00 00       	mov    $0x0,%eax
  400fd5:	e8 46 fe ff ff       	callq  400e20 <__printf_chk@plt>
  400fda:	bf 90 2f 40 00       	mov    $0x402f90,%edi
  400fdf:	e8 fc fc ff ff       	callq  400ce0 <puts@plt>
  400fe4:	bf 08 31 40 00       	mov    $0x403108,%edi
  400fe9:	e8 f2 fc ff ff       	callq  400ce0 <puts@plt>
  400fee:	bf b8 2f 40 00       	mov    $0x402fb8,%edi
  400ff3:	e8 e8 fc ff ff       	callq  400ce0 <puts@plt>
  400ff8:	bf 22 31 40 00       	mov    $0x403122,%edi
  400ffd:	e8 de fc ff ff       	callq  400ce0 <puts@plt>
  401002:	eb 32                	jmp    401036 <usage+0x80>
  401004:	be 3e 31 40 00       	mov    $0x40313e,%esi
  401009:	bf 01 00 00 00       	mov    $0x1,%edi
  40100e:	b8 00 00 00 00       	mov    $0x0,%eax
  401013:	e8 08 fe ff ff       	callq  400e20 <__printf_chk@plt>
  401018:	bf e0 2f 40 00       	mov    $0x402fe0,%edi
  40101d:	e8 be fc ff ff       	callq  400ce0 <puts@plt>
  401022:	bf 08 30 40 00       	mov    $0x403008,%edi
  401027:	e8 b4 fc ff ff       	callq  400ce0 <puts@plt>
  40102c:	bf 5c 31 40 00       	mov    $0x40315c,%edi
  401031:	e8 aa fc ff ff       	callq  400ce0 <puts@plt>
  401036:	bf 00 00 00 00       	mov    $0x0,%edi
  40103b:	e8 30 fe ff ff       	callq  400e70 <exit@plt>

0000000000401040 <initialize_target>:
  401040:	55                   	push   %rbp
  401041:	53                   	push   %rbx
  401042:	48 81 ec 18 21 00 00 	sub    $0x2118,%rsp
  401049:	89 f5                	mov    %esi,%ebp
  40104b:	64 48 8b 04 25 28 00 	mov    %fs:0x28,%rax
  401052:	00 00 
  401054:	48 89 84 24 08 21 00 	mov    %rax,0x2108(%rsp)
  40105b:	00 
  40105c:	31 c0                	xor    %eax,%eax
  40105e:	89 3d b4 44 20 00    	mov    %edi,0x2044b4(%rip)        # 605518 <check_level>
  401064:	8b 3d fe 40 20 00    	mov    0x2040fe(%rip),%edi        # 605168 <target_id>
  40106a:	e8 3a 1e 00 00       	callq  402ea9 <gencookie>
  40106f:	89 05 af 44 20 00    	mov    %eax,0x2044af(%rip)        # 605524 <cookie>
  401075:	89 c7                	mov    %eax,%edi
  401077:	e8 2d 1e 00 00       	callq  402ea9 <gencookie>
  40107c:	89 05 9e 44 20 00    	mov    %eax,0x20449e(%rip)        # 605520 <authkey>
  401082:	8b 05 e0 40 20 00    	mov    0x2040e0(%rip),%eax        # 605168 <target_id>
  401088:	8d 78 01             	lea    0x1(%rax),%edi
  40108b:	e8 20 fc ff ff       	callq  400cb0 <srandom@plt>
  401090:	e8 4b fd ff ff       	callq  400de0 <random@plt>
  401095:	89 c7                	mov    %eax,%edi
  401097:	e8 03 03 00 00       	callq  40139f <scramble>
  40109c:	89 c3                	mov    %eax,%ebx
  40109e:	85 ed                	test   %ebp,%ebp
  4010a0:	74 18                	je     4010ba <initialize_target+0x7a>
  4010a2:	bf 00 00 00 00       	mov    $0x0,%edi
  4010a7:	e8 24 fd ff ff       	callq  400dd0 <time@plt>
  4010ac:	89 c7                	mov    %eax,%edi
  4010ae:	e8 fd fb ff ff       	callq  400cb0 <srandom@plt>
  4010b3:	e8 28 fd ff ff       	callq  400de0 <random@plt>
  4010b8:	eb 05                	jmp    4010bf <initialize_target+0x7f>
  4010ba:	b8 00 00 00 00       	mov    $0x0,%eax
  4010bf:	01 c3                	add    %eax,%ebx
  4010c1:	0f b7 db             	movzwl %bx,%ebx
  4010c4:	8d 04 dd 00 01 00 00 	lea    0x100(,%rbx,8),%eax
  4010cb:	89 c0                	mov    %eax,%eax
  4010cd:	48 89 05 cc 43 20 00 	mov    %rax,0x2043cc(%rip)        # 6054a0 <buf_offset>
  4010d4:	c6 05 6d 50 20 00 72 	movb   $0x72,0x20506d(%rip)        # 606148 <target_prefix>
  4010db:	83 3d c6 43 20 00 00 	cmpl   $0x0,0x2043c6(%rip)        # 6054a8 <notify>
  4010e2:	0f 84 bb 00 00 00    	je     4011a3 <initialize_target+0x163>
  4010e8:	83 3d 39 44 20 00 00 	cmpl   $0x0,0x204439(%rip)        # 605528 <is_checker>
  4010ef:	0f 85 ae 00 00 00    	jne    4011a3 <initialize_target+0x163>
  4010f5:	be 00 01 00 00       	mov    $0x100,%esi
  4010fa:	48 89 e7             	mov    %rsp,%rdi
  4010fd:	e8 5e fd ff ff       	callq  400e60 <gethostname@plt>
  401102:	85 c0                	test   %eax,%eax
  401104:	74 25                	je     40112b <initialize_target+0xeb>
  401106:	bf 38 30 40 00       	mov    $0x403038,%edi
  40110b:	e8 d0 fb ff ff       	callq  400ce0 <puts@plt>
  401110:	bf 08 00 00 00       	mov    $0x8,%edi
  401115:	e8 56 fd ff ff       	callq  400e70 <exit@plt>
  40111a:	48 89 e6             	mov    %rsp,%rsi
  40111d:	e8 6e fb ff ff       	callq  400c90 <strcasecmp@plt>
  401122:	85 c0                	test   %eax,%eax
  401124:	74 21                	je     401147 <initialize_target+0x107>
  401126:	83 c3 01             	add    $0x1,%ebx
  401129:	eb 05                	jmp    401130 <initialize_target+0xf0>
  40112b:	bb 00 00 00 00       	mov    $0x0,%ebx
  401130:	48 63 c3             	movslq %ebx,%rax
  401133:	48 8b 3c c5 80 51 60 	mov    0x605180(,%rax,8),%rdi
  40113a:	00 
  40113b:	48 85 ff             	test   %rdi,%rdi
  40113e:	75 da                	jne    40111a <initialize_target+0xda>
  401140:	b8 00 00 00 00       	mov    $0x0,%eax
  401145:	eb 05                	jmp    40114c <initialize_target+0x10c>
  401147:	b8 01 00 00 00       	mov    $0x1,%eax
  40114c:	85 c0                	test   %eax,%eax
  40114e:	75 1c                	jne    40116c <initialize_target+0x12c>
  401150:	48 89 e2             	mov    %rsp,%rdx
  401153:	be 70 30 40 00       	mov    $0x403070,%esi
  401158:	bf 01 00 00 00       	mov    $0x1,%edi
  40115d:	e8 be fc ff ff       	callq  400e20 <__printf_chk@plt>
  401162:	bf 08 00 00 00       	mov    $0x8,%edi
  401167:	e8 04 fd ff ff       	callq  400e70 <exit@plt>
  40116c:	48 8d bc 24 00 01 00 	lea    0x100(%rsp),%rdi
  401173:	00 
  401174:	e8 9a 1a 00 00       	callq  402c13 <init_driver>
  401179:	85 c0                	test   %eax,%eax
  40117b:	79 26                	jns    4011a3 <initialize_target+0x163>
  40117d:	48 8d 94 24 00 01 00 	lea    0x100(%rsp),%rdx
  401184:	00 
  401185:	be b0 30 40 00       	mov    $0x4030b0,%esi
  40118a:	bf 01 00 00 00       	mov    $0x1,%edi
  40118f:	b8 00 00 00 00       	mov    $0x0,%eax
  401194:	e8 87 fc ff ff       	callq  400e20 <__printf_chk@plt>
  401199:	bf 08 00 00 00       	mov    $0x8,%edi
  40119e:	e8 cd fc ff ff       	callq  400e70 <exit@plt>
  4011a3:	48 8b 84 24 08 21 00 	mov    0x2108(%rsp),%rax
  4011aa:	00 
  4011ab:	64 48 33 04 25 28 00 	xor    %fs:0x28,%rax
  4011b2:	00 00 
  4011b4:	74 05                	je     4011bb <initialize_target+0x17b>
  4011b6:	e8 45 fb ff ff       	callq  400d00 <__stack_chk_fail@plt>
  4011bb:	48 81 c4 18 21 00 00 	add    $0x2118,%rsp
  4011c2:	5b                   	pop    %rbx
  4011c3:	5d                   	pop    %rbp
  4011c4:	c3                   	retq   

00000000004011c5 <main>:
  4011c5:	41 56                	push   %r14
  4011c7:	41 55                	push   %r13
  4011c9:	41 54                	push   %r12
  4011cb:	55                   	push   %rbp
  4011cc:	53                   	push   %rbx
  4011cd:	41 89 fc             	mov    %edi,%r12d
  4011d0:	48 89 f3             	mov    %rsi,%rbx
  4011d3:	be 82 1f 40 00       	mov    $0x401f82,%esi
  4011d8:	bf 0b 00 00 00       	mov    $0xb,%edi
  4011dd:	e8 8e fb ff ff       	callq  400d70 <signal@plt>
  4011e2:	be 34 1f 40 00       	mov    $0x401f34,%esi
  4011e7:	bf 07 00 00 00       	mov    $0x7,%edi
  4011ec:	e8 7f fb ff ff       	callq  400d70 <signal@plt>
  4011f1:	be d0 1f 40 00       	mov    $0x401fd0,%esi
  4011f6:	bf 04 00 00 00       	mov    $0x4,%edi
  4011fb:	e8 70 fb ff ff       	callq  400d70 <signal@plt>
  401200:	83 3d 21 43 20 00 00 	cmpl   $0x0,0x204321(%rip)        # 605528 <is_checker>
  401207:	74 20                	je     401229 <main+0x64>
  401209:	be 1e 20 40 00       	mov    $0x40201e,%esi
  40120e:	bf 0e 00 00 00       	mov    $0xe,%edi
  401213:	e8 58 fb ff ff       	callq  400d70 <signal@plt>
  401218:	bf 05 00 00 00       	mov    $0x5,%edi
  40121d:	e8 0e fb ff ff       	callq  400d30 <alarm@plt>
  401222:	bd 7a 31 40 00       	mov    $0x40317a,%ebp
  401227:	eb 05                	jmp    40122e <main+0x69>
  401229:	bd 75 31 40 00       	mov    $0x403175,%ebp
  40122e:	48 8b 05 8b 42 20 00 	mov    0x20428b(%rip),%rax        # 6054c0 <stdin@@GLIBC_2.2.5>
  401235:	48 89 05 d4 42 20 00 	mov    %rax,0x2042d4(%rip)        # 605510 <infile>
  40123c:	41 bd 00 00 00 00    	mov    $0x0,%r13d
  401242:	41 be 00 00 00 00    	mov    $0x0,%r14d
  401248:	e9 c6 00 00 00       	jmpq   401313 <main+0x14e>
  40124d:	83 e8 61             	sub    $0x61,%eax
  401250:	3c 10                	cmp    $0x10,%al
  401252:	0f 87 9c 00 00 00    	ja     4012f4 <main+0x12f>
  401258:	0f b6 c0             	movzbl %al,%eax
  40125b:	ff 24 c5 c0 31 40 00 	jmpq   *0x4031c0(,%rax,8)
  401262:	48 8b 3b             	mov    (%rbx),%rdi
  401265:	e8 4c fd ff ff       	callq  400fb6 <usage>
  40126a:	be 45 34 40 00       	mov    $0x403445,%esi
  40126f:	48 8b 3d 6a 42 20 00 	mov    0x20426a(%rip),%rdi        # 6054e0 <optarg@@GLIBC_2.2.5>
  401276:	e8 b5 fb ff ff       	callq  400e30 <fopen@plt>
  40127b:	48 89 05 8e 42 20 00 	mov    %rax,0x20428e(%rip)        # 605510 <infile>
  401282:	48 85 c0             	test   %rax,%rax
  401285:	0f 85 88 00 00 00    	jne    401313 <main+0x14e>
  40128b:	48 8b 0d 4e 42 20 00 	mov    0x20424e(%rip),%rcx        # 6054e0 <optarg@@GLIBC_2.2.5>
  401292:	ba 82 31 40 00       	mov    $0x403182,%edx
  401297:	be 01 00 00 00       	mov    $0x1,%esi
  40129c:	48 8b 3d 45 42 20 00 	mov    0x204245(%rip),%rdi        # 6054e8 <stderr@@GLIBC_2.2.5>
  4012a3:	e8 e8 fb ff ff       	callq  400e90 <__fprintf_chk@plt>
  4012a8:	b8 01 00 00 00       	mov    $0x1,%eax
  4012ad:	e9 e4 00 00 00       	jmpq   401396 <main+0x1d1>
  4012b2:	ba 10 00 00 00       	mov    $0x10,%edx
  4012b7:	be 00 00 00 00       	mov    $0x0,%esi
  4012bc:	48 8b 3d 1d 42 20 00 	mov    0x20421d(%rip),%rdi        # 6054e0 <optarg@@GLIBC_2.2.5>
  4012c3:	e8 88 fb ff ff       	callq  400e50 <strtoul@plt>
  4012c8:	41 89 c6             	mov    %eax,%r14d
  4012cb:	eb 46                	jmp    401313 <main+0x14e>
  4012cd:	ba 0a 00 00 00       	mov    $0xa,%edx
  4012d2:	be 00 00 00 00       	mov    $0x0,%esi
  4012d7:	48 8b 3d 02 42 20 00 	mov    0x204202(%rip),%rdi        # 6054e0 <optarg@@GLIBC_2.2.5>
  4012de:	e8 cd fa ff ff       	callq  400db0 <strtol@plt>
  4012e3:	41 89 c5             	mov    %eax,%r13d
  4012e6:	eb 2b                	jmp    401313 <main+0x14e>
  4012e8:	c7 05 b6 41 20 00 00 	movl   $0x0,0x2041b6(%rip)        # 6054a8 <notify>
  4012ef:	00 00 00 
  4012f2:	eb 1f                	jmp    401313 <main+0x14e>
  4012f4:	0f be d2             	movsbl %dl,%edx
  4012f7:	be 9f 31 40 00       	mov    $0x40319f,%esi
  4012fc:	bf 01 00 00 00       	mov    $0x1,%edi
  401301:	b8 00 00 00 00       	mov    $0x0,%eax
  401306:	e8 15 fb ff ff       	callq  400e20 <__printf_chk@plt>
  40130b:	48 8b 3b             	mov    (%rbx),%rdi
  40130e:	e8 a3 fc ff ff       	callq  400fb6 <usage>
  401313:	48 89 ea             	mov    %rbp,%rdx
  401316:	48 89 de             	mov    %rbx,%rsi
  401319:	44 89 e7             	mov    %r12d,%edi
  40131c:	e8 1f fb ff ff       	callq  400e40 <getopt@plt>
  401321:	89 c2                	mov    %eax,%edx
  401323:	3c ff                	cmp    $0xff,%al
  401325:	0f 85 22 ff ff ff    	jne    40124d <main+0x88>
  40132b:	be 01 00 00 00       	mov    $0x1,%esi
  401330:	44 89 ef             	mov    %r13d,%edi
  401333:	e8 08 fd ff ff       	callq  401040 <initialize_target>
  401338:	83 3d e9 41 20 00 00 	cmpl   $0x0,0x2041e9(%rip)        # 605528 <is_checker>
  40133f:	74 2a                	je     40136b <main+0x1a6>
  401341:	44 3b 35 d8 41 20 00 	cmp    0x2041d8(%rip),%r14d        # 605520 <authkey>
  401348:	74 21                	je     40136b <main+0x1a6>
  40134a:	44 89 f2             	mov    %r14d,%edx
  40134d:	be d8 30 40 00       	mov    $0x4030d8,%esi
  401352:	bf 01 00 00 00       	mov    $0x1,%edi
  401357:	b8 00 00 00 00       	mov    $0x0,%eax
  40135c:	e8 bf fa ff ff       	callq  400e20 <__printf_chk@plt>
  401361:	b8 00 00 00 00       	mov    $0x0,%eax
  401366:	e8 65 08 00 00       	callq  401bd0 <check_fail>
  40136b:	8b 15 b3 41 20 00    	mov    0x2041b3(%rip),%edx        # 605524 <cookie>
  401371:	be b2 31 40 00       	mov    $0x4031b2,%esi
  401376:	bf 01 00 00 00       	mov    $0x1,%edi
  40137b:	b8 00 00 00 00       	mov    $0x0,%eax
  401380:	e8 9b fa ff ff       	callq  400e20 <__printf_chk@plt>
  401385:	48 8b 3d 14 41 20 00 	mov    0x204114(%rip),%rdi        # 6054a0 <buf_offset>
  40138c:	e8 e0 0c 00 00       	callq  402071 <launch>
  401391:	b8 00 00 00 00       	mov    $0x0,%eax
  401396:	5b                   	pop    %rbx
  401397:	5d                   	pop    %rbp
  401398:	41 5c                	pop    %r12
  40139a:	41 5d                	pop    %r13
  40139c:	41 5e                	pop    %r14
  40139e:	c3                   	retq   

000000000040139f <scramble>:
  40139f:	b8 00 00 00 00       	mov    $0x0,%eax
  4013a4:	eb 11                	jmp    4013b7 <scramble+0x18>
  4013a6:	69 d0 55 a1 00 00    	imul   $0xa155,%eax,%edx
  4013ac:	01 fa                	add    %edi,%edx
  4013ae:	89 c1                	mov    %eax,%ecx
  4013b0:	89 54 8c c8          	mov    %edx,-0x38(%rsp,%rcx,4)
  4013b4:	83 c0 01             	add    $0x1,%eax
  4013b7:	83 f8 09             	cmp    $0x9,%eax
  4013ba:	76 ea                	jbe    4013a6 <scramble+0x7>
  4013bc:	8b 44 24 d4          	mov    -0x2c(%rsp),%eax
  4013c0:	69 c0 69 f8 00 00    	imul   $0xf869,%eax,%eax
  4013c6:	89 44 24 d4          	mov    %eax,-0x2c(%rsp)
  4013ca:	8b 44 24 cc          	mov    -0x34(%rsp),%eax
  4013ce:	69 c0 b9 44 00 00    	imul   $0x44b9,%eax,%eax
  4013d4:	89 44 24 cc          	mov    %eax,-0x34(%rsp)
  4013d8:	8b 44 24 e0          	mov    -0x20(%rsp),%eax
  4013dc:	69 c0 12 c2 00 00    	imul   $0xc212,%eax,%eax
  4013e2:	89 44 24 e0          	mov    %eax,-0x20(%rsp)
  4013e6:	8b 44 24 d4          	mov    -0x2c(%rsp),%eax
  4013ea:	69 c0 53 33 00 00    	imul   $0x3353,%eax,%eax
  4013f0:	89 44 24 d4          	mov    %eax,-0x2c(%rsp)
  4013f4:	8b 44 24 ec          	mov    -0x14(%rsp),%eax
  4013f8:	69 c0 96 19 00 00    	imul   $0x1996,%eax,%eax
  4013fe:	89 44 24 ec          	mov    %eax,-0x14(%rsp)
  401402:	8b 44 24 ec          	mov    -0x14(%rsp),%eax
  401406:	69 c0 46 21 00 00    	imul   $0x2146,%eax,%eax
  40140c:	89 44 24 ec          	mov    %eax,-0x14(%rsp)
  401410:	8b 44 24 d8          	mov    -0x28(%rsp),%eax
  401414:	69 c0 51 ff 00 00    	imul   $0xff51,%eax,%eax
  40141a:	89 44 24 d8          	mov    %eax,-0x28(%rsp)
  40141e:	8b 44 24 d0          	mov    -0x30(%rsp),%eax
  401422:	69 c0 9d c7 00 00    	imul   $0xc79d,%eax,%eax
  401428:	89 44 24 d0          	mov    %eax,-0x30(%rsp)
  40142c:	8b 44 24 e0          	mov    -0x20(%rsp),%eax
  401430:	69 c0 ac 8a 00 00    	imul   $0x8aac,%eax,%eax
  401436:	89 44 24 e0          	mov    %eax,-0x20(%rsp)
  40143a:	8b 44 24 d0          	mov    -0x30(%rsp),%eax
  40143e:	69 c0 3f 63 00 00    	imul   $0x633f,%eax,%eax
  401444:	89 44 24 d0          	mov    %eax,-0x30(%rsp)
  401448:	8b 44 24 e0          	mov    -0x20(%rsp),%eax
  40144c:	69 c0 57 ba 00 00    	imul   $0xba57,%eax,%eax
  401452:	89 44 24 e0          	mov    %eax,-0x20(%rsp)
  401456:	8b 44 24 d8          	mov    -0x28(%rsp),%eax
  40145a:	69 c0 5b 50 00 00    	imul   $0x505b,%eax,%eax
  401460:	89 44 24 d8          	mov    %eax,-0x28(%rsp)
  401464:	8b 44 24 cc          	mov    -0x34(%rsp),%eax
  401468:	69 c0 27 88 00 00    	imul   $0x8827,%eax,%eax
  40146e:	89 44 24 cc          	mov    %eax,-0x34(%rsp)
  401472:	8b 44 24 e4          	mov    -0x1c(%rsp),%eax
  401476:	69 c0 cf 2c 00 00    	imul   $0x2ccf,%eax,%eax
  40147c:	89 44 24 e4          	mov    %eax,-0x1c(%rsp)
  401480:	8b 44 24 d0          	mov    -0x30(%rsp),%eax
  401484:	69 c0 3e dc 00 00    	imul   $0xdc3e,%eax,%eax
  40148a:	89 44 24 d0          	mov    %eax,-0x30(%rsp)
  40148e:	8b 44 24 d0          	mov    -0x30(%rsp),%eax
  401492:	69 c0 1c 35 00 00    	imul   $0x351c,%eax,%eax
  401498:	89 44 24 d0          	mov    %eax,-0x30(%rsp)
  40149c:	8b 44 24 e4          	mov    -0x1c(%rsp),%eax
  4014a0:	69 c0 57 24 00 00    	imul   $0x2457,%eax,%eax
  4014a6:	89 44 24 e4          	mov    %eax,-0x1c(%rsp)
  4014aa:	8b 44 24 d4          	mov    -0x2c(%rsp),%eax
  4014ae:	69 c0 97 66 00 00    	imul   $0x6697,%eax,%eax
  4014b4:	89 44 24 d4          	mov    %eax,-0x2c(%rsp)
  4014b8:	8b 44 24 e8          	mov    -0x18(%rsp),%eax
  4014bc:	69 c0 d3 60 00 00    	imul   $0x60d3,%eax,%eax
  4014c2:	89 44 24 e8          	mov    %eax,-0x18(%rsp)
  4014c6:	8b 44 24 d4          	mov    -0x2c(%rsp),%eax
  4014ca:	69 c0 58 51 00 00    	imul   $0x5158,%eax,%eax
  4014d0:	89 44 24 d4          	mov    %eax,-0x2c(%rsp)
  4014d4:	8b 44 24 cc          	mov    -0x34(%rsp),%eax
  4014d8:	69 c0 12 07 00 00    	imul   $0x712,%eax,%eax
  4014de:	89 44 24 cc          	mov    %eax,-0x34(%rsp)
  4014e2:	8b 44 24 e4          	mov    -0x1c(%rsp),%eax
  4014e6:	69 c0 ae 19 00 00    	imul   $0x19ae,%eax,%eax
  4014ec:	89 44 24 e4          	mov    %eax,-0x1c(%rsp)
  4014f0:	8b 44 24 d8          	mov    -0x28(%rsp),%eax
  4014f4:	69 c0 25 d3 00 00    	imul   $0xd325,%eax,%eax
  4014fa:	89 44 24 d8          	mov    %eax,-0x28(%rsp)
  4014fe:	8b 44 24 c8          	mov    -0x38(%rsp),%eax
  401502:	69 c0 ed 88 00 00    	imul   $0x88ed,%eax,%eax
  401508:	89 44 24 c8          	mov    %eax,-0x38(%rsp)
  40150c:	8b 44 24 d0          	mov    -0x30(%rsp),%eax
  401510:	69 c0 22 65 00 00    	imul   $0x6522,%eax,%eax
  401516:	89 44 24 d0          	mov    %eax,-0x30(%rsp)
  40151a:	8b 44 24 ec          	mov    -0x14(%rsp),%eax
  40151e:	69 c0 cc 4f 00 00    	imul   $0x4fcc,%eax,%eax
  401524:	89 44 24 ec          	mov    %eax,-0x14(%rsp)
  401528:	8b 44 24 dc          	mov    -0x24(%rsp),%eax
  40152c:	69 c0 ca 5d 00 00    	imul   $0x5dca,%eax,%eax
  401532:	89 44 24 dc          	mov    %eax,-0x24(%rsp)
  401536:	8b 44 24 d4          	mov    -0x2c(%rsp),%eax
  40153a:	69 c0 78 5b 00 00    	imul   $0x5b78,%eax,%eax
  401540:	89 44 24 d4          	mov    %eax,-0x2c(%rsp)
  401544:	8b 44 24 dc          	mov    -0x24(%rsp),%eax
  401548:	69 c0 0a 37 00 00    	imul   $0x370a,%eax,%eax
  40154e:	89 44 24 dc          	mov    %eax,-0x24(%rsp)
  401552:	8b 44 24 ec          	mov    -0x14(%rsp),%eax
  401556:	69 c0 b8 79 00 00    	imul   $0x79b8,%eax,%eax
  40155c:	89 44 24 ec          	mov    %eax,-0x14(%rsp)
  401560:	8b 44 24 d0          	mov    -0x30(%rsp),%eax
  401564:	69 c0 89 b6 00 00    	imul   $0xb689,%eax,%eax
  40156a:	89 44 24 d0          	mov    %eax,-0x30(%rsp)
  40156e:	8b 44 24 e4          	mov    -0x1c(%rsp),%eax
  401572:	69 c0 f1 e7 00 00    	imul   $0xe7f1,%eax,%eax
  401578:	89 44 24 e4          	mov    %eax,-0x1c(%rsp)
  40157c:	8b 44 24 e8          	mov    -0x18(%rsp),%eax
  401580:	69 c0 aa 28 00 00    	imul   $0x28aa,%eax,%eax
  401586:	89 44 24 e8          	mov    %eax,-0x18(%rsp)
  40158a:	8b 44 24 e4          	mov    -0x1c(%rsp),%eax
  40158e:	69 c0 4a c1 00 00    	imul   $0xc14a,%eax,%eax
  401594:	89 44 24 e4          	mov    %eax,-0x1c(%rsp)
  401598:	8b 44 24 cc          	mov    -0x34(%rsp),%eax
  40159c:	69 c0 72 e8 00 00    	imul   $0xe872,%eax,%eax
  4015a2:	89 44 24 cc          	mov    %eax,-0x34(%rsp)
  4015a6:	8b 44 24 e0          	mov    -0x20(%rsp),%eax
  4015aa:	69 c0 e7 03 00 00    	imul   $0x3e7,%eax,%eax
  4015b0:	89 44 24 e0          	mov    %eax,-0x20(%rsp)
  4015b4:	8b 44 24 dc          	mov    -0x24(%rsp),%eax
  4015b8:	69 c0 42 85 00 00    	imul   $0x8542,%eax,%eax
  4015be:	89 44 24 dc          	mov    %eax,-0x24(%rsp)
  4015c2:	8b 44 24 ec          	mov    -0x14(%rsp),%eax
  4015c6:	69 c0 e7 f5 00 00    	imul   $0xf5e7,%eax,%eax
  4015cc:	89 44 24 ec          	mov    %eax,-0x14(%rsp)
  4015d0:	8b 44 24 ec          	mov    -0x14(%rsp),%eax
  4015d4:	69 c0 e1 fe 00 00    	imul   $0xfee1,%eax,%eax
  4015da:	89 44 24 ec          	mov    %eax,-0x14(%rsp)
  4015de:	8b 44 24 cc          	mov    -0x34(%rsp),%eax
  4015e2:	69 c0 39 b6 00 00    	imul   $0xb639,%eax,%eax
  4015e8:	89 44 24 cc          	mov    %eax,-0x34(%rsp)
  4015ec:	8b 44 24 d4          	mov    -0x2c(%rsp),%eax
  4015f0:	69 c0 01 6b 00 00    	imul   $0x6b01,%eax,%eax
  4015f6:	89 44 24 d4          	mov    %eax,-0x2c(%rsp)
  4015fa:	8b 44 24 d0          	mov    -0x30(%rsp),%eax
  4015fe:	69 c0 7d 83 00 00    	imul   $0x837d,%eax,%eax
  401604:	89 44 24 d0          	mov    %eax,-0x30(%rsp)
  401608:	8b 44 24 e4          	mov    -0x1c(%rsp),%eax
  40160c:	69 c0 2d a6 00 00    	imul   $0xa62d,%eax,%eax
  401612:	89 44 24 e4          	mov    %eax,-0x1c(%rsp)
  401616:	8b 44 24 e4          	mov    -0x1c(%rsp),%eax
  40161a:	69 c0 bd ae 00 00    	imul   $0xaebd,%eax,%eax
  401620:	89 44 24 e4          	mov    %eax,-0x1c(%rsp)
  401624:	8b 44 24 c8          	mov    -0x38(%rsp),%eax
  401628:	69 c0 3c 67 00 00    	imul   $0x673c,%eax,%eax
  40162e:	89 44 24 c8          	mov    %eax,-0x38(%rsp)
  401632:	8b 44 24 dc          	mov    -0x24(%rsp),%eax
  401636:	69 c0 80 f0 00 00    	imul   $0xf080,%eax,%eax
  40163c:	89 44 24 dc          	mov    %eax,-0x24(%rsp)
  401640:	8b 44 24 ec          	mov    -0x14(%rsp),%eax
  401644:	69 c0 4a d7 00 00    	imul   $0xd74a,%eax,%eax
  40164a:	89 44 24 ec          	mov    %eax,-0x14(%rsp)
  40164e:	8b 44 24 e0          	mov    -0x20(%rsp),%eax
  401652:	69 c0 a6 f8 00 00    	imul   $0xf8a6,%eax,%eax
  401658:	89 44 24 e0          	mov    %eax,-0x20(%rsp)
  40165c:	8b 44 24 e4          	mov    -0x1c(%rsp),%eax
  401660:	69 c0 f9 26 00 00    	imul   $0x26f9,%eax,%eax
  401666:	89 44 24 e4          	mov    %eax,-0x1c(%rsp)
  40166a:	8b 44 24 e8          	mov    -0x18(%rsp),%eax
  40166e:	69 c0 72 89 00 00    	imul   $0x8972,%eax,%eax
  401674:	89 44 24 e8          	mov    %eax,-0x18(%rsp)
  401678:	8b 44 24 dc          	mov    -0x24(%rsp),%eax
  40167c:	69 c0 94 cc 00 00    	imul   $0xcc94,%eax,%eax
  401682:	89 44 24 dc          	mov    %eax,-0x24(%rsp)
  401686:	8b 44 24 d0          	mov    -0x30(%rsp),%eax
  40168a:	69 c0 f0 fe 00 00    	imul   $0xfef0,%eax,%eax
  401690:	89 44 24 d0          	mov    %eax,-0x30(%rsp)
  401694:	8b 44 24 d8          	mov    -0x28(%rsp),%eax
  401698:	69 c0 ee aa 00 00    	imul   $0xaaee,%eax,%eax
  40169e:	89 44 24 d8          	mov    %eax,-0x28(%rsp)
  4016a2:	8b 44 24 d0          	mov    -0x30(%rsp),%eax
  4016a6:	69 c0 3d aa 00 00    	imul   $0xaa3d,%eax,%eax
  4016ac:	89 44 24 d0          	mov    %eax,-0x30(%rsp)
  4016b0:	8b 44 24 d4          	mov    -0x2c(%rsp),%eax
  4016b4:	69 c0 ad 73 00 00    	imul   $0x73ad,%eax,%eax
  4016ba:	89 44 24 d4          	mov    %eax,-0x2c(%rsp)
  4016be:	8b 44 24 e0          	mov    -0x20(%rsp),%eax
  4016c2:	69 c0 d3 0d 00 00    	imul   $0xdd3,%eax,%eax
  4016c8:	89 44 24 e0          	mov    %eax,-0x20(%rsp)
  4016cc:	8b 44 24 d8          	mov    -0x28(%rsp),%eax
  4016d0:	69 c0 7c 66 00 00    	imul   $0x667c,%eax,%eax
  4016d6:	89 44 24 d8          	mov    %eax,-0x28(%rsp)
  4016da:	8b 44 24 dc          	mov    -0x24(%rsp),%eax
  4016de:	69 c0 7a a7 00 00    	imul   $0xa77a,%eax,%eax
  4016e4:	89 44 24 dc          	mov    %eax,-0x24(%rsp)
  4016e8:	8b 44 24 e8          	mov    -0x18(%rsp),%eax
  4016ec:	69 c0 45 70 00 00    	imul   $0x7045,%eax,%eax
  4016f2:	89 44 24 e8          	mov    %eax,-0x18(%rsp)
  4016f6:	8b 44 24 e4          	mov    -0x1c(%rsp),%eax
  4016fa:	69 c0 e1 e9 00 00    	imul   $0xe9e1,%eax,%eax
  401700:	89 44 24 e4          	mov    %eax,-0x1c(%rsp)
  401704:	8b 44 24 cc          	mov    -0x34(%rsp),%eax
  401708:	69 c0 ae 7e 00 00    	imul   $0x7eae,%eax,%eax
  40170e:	89 44 24 cc          	mov    %eax,-0x34(%rsp)
  401712:	8b 44 24 d8          	mov    -0x28(%rsp),%eax
  401716:	69 c0 47 f5 00 00    	imul   $0xf547,%eax,%eax
  40171c:	89 44 24 d8          	mov    %eax,-0x28(%rsp)
  401720:	8b 44 24 ec          	mov    -0x14(%rsp),%eax
  401724:	69 c0 d3 b2 00 00    	imul   $0xb2d3,%eax,%eax
  40172a:	89 44 24 ec          	mov    %eax,-0x14(%rsp)
  40172e:	8b 44 24 d8          	mov    -0x28(%rsp),%eax
  401732:	69 c0 ed 55 00 00    	imul   $0x55ed,%eax,%eax
  401738:	89 44 24 d8          	mov    %eax,-0x28(%rsp)
  40173c:	8b 44 24 dc          	mov    -0x24(%rsp),%eax
  401740:	69 c0 de a7 00 00    	imul   $0xa7de,%eax,%eax
  401746:	89 44 24 dc          	mov    %eax,-0x24(%rsp)
  40174a:	8b 44 24 e0          	mov    -0x20(%rsp),%eax
  40174e:	69 c0 38 e9 00 00    	imul   $0xe938,%eax,%eax
  401754:	89 44 24 e0          	mov    %eax,-0x20(%rsp)
  401758:	8b 44 24 d4          	mov    -0x2c(%rsp),%eax
  40175c:	69 c0 b8 6c 00 00    	imul   $0x6cb8,%eax,%eax
  401762:	89 44 24 d4          	mov    %eax,-0x2c(%rsp)
  401766:	8b 44 24 d8          	mov    -0x28(%rsp),%eax
  40176a:	69 c0 48 c6 00 00    	imul   $0xc648,%eax,%eax
  401770:	89 44 24 d8          	mov    %eax,-0x28(%rsp)
  401774:	8b 44 24 d0          	mov    -0x30(%rsp),%eax
  401778:	69 c0 01 dd 00 00    	imul   $0xdd01,%eax,%eax
  40177e:	89 44 24 d0          	mov    %eax,-0x30(%rsp)
  401782:	8b 44 24 c8          	mov    -0x38(%rsp),%eax
  401786:	69 c0 76 c1 00 00    	imul   $0xc176,%eax,%eax
  40178c:	89 44 24 c8          	mov    %eax,-0x38(%rsp)
  401790:	8b 44 24 c8          	mov    -0x38(%rsp),%eax
  401794:	69 c0 fd d0 00 00    	imul   $0xd0fd,%eax,%eax
  40179a:	89 44 24 c8          	mov    %eax,-0x38(%rsp)
  40179e:	8b 44 24 d4          	mov    -0x2c(%rsp),%eax
  4017a2:	69 c0 5c 2f 00 00    	imul   $0x2f5c,%eax,%eax
  4017a8:	89 44 24 d4          	mov    %eax,-0x2c(%rsp)
  4017ac:	8b 44 24 e4          	mov    -0x1c(%rsp),%eax
  4017b0:	69 c0 9a 60 00 00    	imul   $0x609a,%eax,%eax
  4017b6:	89 44 24 e4          	mov    %eax,-0x1c(%rsp)
  4017ba:	8b 44 24 d0          	mov    -0x30(%rsp),%eax
  4017be:	69 c0 23 44 00 00    	imul   $0x4423,%eax,%eax
  4017c4:	89 44 24 d0          	mov    %eax,-0x30(%rsp)
  4017c8:	8b 44 24 e0          	mov    -0x20(%rsp),%eax
  4017cc:	69 c0 0f 2d 00 00    	imul   $0x2d0f,%eax,%eax
  4017d2:	89 44 24 e0          	mov    %eax,-0x20(%rsp)
  4017d6:	8b 44 24 e4          	mov    -0x1c(%rsp),%eax
  4017da:	69 c0 61 a8 00 00    	imul   $0xa861,%eax,%eax
  4017e0:	89 44 24 e4          	mov    %eax,-0x1c(%rsp)
  4017e4:	8b 44 24 d8          	mov    -0x28(%rsp),%eax
  4017e8:	69 c0 65 08 00 00    	imul   $0x865,%eax,%eax
  4017ee:	89 44 24 d8          	mov    %eax,-0x28(%rsp)
  4017f2:	8b 44 24 d8          	mov    -0x28(%rsp),%eax
  4017f6:	69 c0 b5 01 00 00    	imul   $0x1b5,%eax,%eax
  4017fc:	89 44 24 d8          	mov    %eax,-0x28(%rsp)
  401800:	8b 44 24 d0          	mov    -0x30(%rsp),%eax
  401804:	69 c0 96 8b 00 00    	imul   $0x8b96,%eax,%eax
  40180a:	89 44 24 d0          	mov    %eax,-0x30(%rsp)
  40180e:	8b 44 24 d0          	mov    -0x30(%rsp),%eax
  401812:	69 c0 05 95 00 00    	imul   $0x9505,%eax,%eax
  401818:	89 44 24 d0          	mov    %eax,-0x30(%rsp)
  40181c:	8b 44 24 dc          	mov    -0x24(%rsp),%eax
  401820:	69 c0 01 37 00 00    	imul   $0x3701,%eax,%eax
  401826:	89 44 24 dc          	mov    %eax,-0x24(%rsp)
  40182a:	8b 44 24 cc          	mov    -0x34(%rsp),%eax
  40182e:	69 c0 e7 a7 00 00    	imul   $0xa7e7,%eax,%eax
  401834:	89 44 24 cc          	mov    %eax,-0x34(%rsp)
  401838:	ba 00 00 00 00       	mov    $0x0,%edx
  40183d:	b8 00 00 00 00       	mov    $0x0,%eax
  401842:	eb 0b                	jmp    40184f <scramble+0x4b0>
  401844:	89 d1                	mov    %edx,%ecx
  401846:	8b 4c 8c c8          	mov    -0x38(%rsp,%rcx,4),%ecx
  40184a:	01 c8                	add    %ecx,%eax
  40184c:	83 c2 01             	add    $0x1,%edx
  40184f:	83 fa 09             	cmp    $0x9,%edx
  401852:	76 f0                	jbe    401844 <scramble+0x4a5>
  401854:	f3 c3                	repz retq 

0000000000401856 <getbuf>:
  401856:	48 83 ec 18          	sub    $0x18,%rsp
  40185a:	48 89 e7             	mov    %rsp,%rdi
  40185d:	e8 a3 03 00 00       	callq  401c05 <Gets>
  401862:	b8 01 00 00 00       	mov    $0x1,%eax
  401867:	48 83 c4 18          	add    $0x18,%rsp
  40186b:	c3                   	retq   

000000000040186c <touch1>:
  40186c:	48 83 ec 08          	sub    $0x8,%rsp
  401870:	c7 05 a2 3c 20 00 01 	movl   $0x1,0x203ca2(%rip)        # 60551c <vlevel>
  401877:	00 00 00 
  40187a:	bf 9b 32 40 00       	mov    $0x40329b,%edi
  40187f:	e8 5c f4 ff ff       	callq  400ce0 <puts@plt>
  401884:	bf 01 00 00 00       	mov    $0x1,%edi
  401889:	e8 bc 05 00 00       	callq  401e4a <validate>
  40188e:	bf 00 00 00 00       	mov    $0x0,%edi
  401893:	e8 d8 f5 ff ff       	callq  400e70 <exit@plt>

0000000000401898 <touch2>:
  401898:	48 83 ec 08          	sub    $0x8,%rsp
  40189c:	89 fa                	mov    %edi,%edx
  40189e:	c7 05 74 3c 20 00 02 	movl   $0x2,0x203c74(%rip)        # 60551c <vlevel>
  4018a5:	00 00 00 
  4018a8:	39 3d 76 3c 20 00    	cmp    %edi,0x203c76(%rip)        # 605524 <cookie>
  4018ae:	75 20                	jne    4018d0 <touch2+0x38>
  4018b0:	be c0 32 40 00       	mov    $0x4032c0,%esi
  4018b5:	bf 01 00 00 00       	mov    $0x1,%edi
  4018ba:	b8 00 00 00 00       	mov    $0x0,%eax
  4018bf:	e8 5c f5 ff ff       	callq  400e20 <__printf_chk@plt>
  4018c4:	bf 02 00 00 00       	mov    $0x2,%edi
  4018c9:	e8 7c 05 00 00       	callq  401e4a <validate>
  4018ce:	eb 1e                	jmp    4018ee <touch2+0x56>
  4018d0:	be e8 32 40 00       	mov    $0x4032e8,%esi
  4018d5:	bf 01 00 00 00       	mov    $0x1,%edi
  4018da:	b8 00 00 00 00       	mov    $0x0,%eax
  4018df:	e8 3c f5 ff ff       	callq  400e20 <__printf_chk@plt>
  4018e4:	bf 02 00 00 00       	mov    $0x2,%edi
  4018e9:	e8 1e 06 00 00       	callq  401f0c <fail>
  4018ee:	bf 00 00 00 00       	mov    $0x0,%edi
  4018f3:	e8 78 f5 ff ff       	callq  400e70 <exit@plt>

00000000004018f8 <hexmatch>:
  4018f8:	41 54                	push   %r12
  4018fa:	55                   	push   %rbp
  4018fb:	53                   	push   %rbx
  4018fc:	48 83 c4 80          	add    $0xffffffffffffff80,%rsp
  401900:	89 fd                	mov    %edi,%ebp
  401902:	48 89 f3             	mov    %rsi,%rbx
  401905:	64 48 8b 04 25 28 00 	mov    %fs:0x28,%rax
  40190c:	00 00 
  40190e:	48 89 44 24 78       	mov    %rax,0x78(%rsp)
  401913:	31 c0                	xor    %eax,%eax
  401915:	e8 c6 f4 ff ff       	callq  400de0 <random@plt>
  40191a:	48 89 c1             	mov    %rax,%rcx
  40191d:	48 ba 0b d7 a3 70 3d 	movabs $0xa3d70a3d70a3d70b,%rdx
  401924:	0a d7 a3 
  401927:	48 f7 ea             	imul   %rdx
  40192a:	48 01 ca             	add    %rcx,%rdx
  40192d:	48 c1 fa 06          	sar    $0x6,%rdx
  401931:	48 89 c8             	mov    %rcx,%rax
  401934:	48 c1 f8 3f          	sar    $0x3f,%rax
  401938:	48 29 c2             	sub    %rax,%rdx
  40193b:	48 8d 04 92          	lea    (%rdx,%rdx,4),%rax
  40193f:	48 8d 14 80          	lea    (%rax,%rax,4),%rdx
  401943:	48 8d 04 95 00 00 00 	lea    0x0(,%rdx,4),%rax
  40194a:	00 
  40194b:	48 29 c1             	sub    %rax,%rcx
  40194e:	4c 8d 24 0c          	lea    (%rsp,%rcx,1),%r12
  401952:	41 89 e8             	mov    %ebp,%r8d
  401955:	b9 b8 32 40 00       	mov    $0x4032b8,%ecx
  40195a:	48 c7 c2 ff ff ff ff 	mov    $0xffffffffffffffff,%rdx
  401961:	be 01 00 00 00       	mov    $0x1,%esi
  401966:	4c 89 e7             	mov    %r12,%rdi
  401969:	b8 00 00 00 00       	mov    $0x0,%eax
  40196e:	e8 2d f5 ff ff       	callq  400ea0 <__sprintf_chk@plt>
  401973:	ba 09 00 00 00       	mov    $0x9,%edx
  401978:	4c 89 e6             	mov    %r12,%rsi
  40197b:	48 89 df             	mov    %rbx,%rdi
  40197e:	e8 3d f3 ff ff       	callq  400cc0 <strncmp@plt>
  401983:	85 c0                	test   %eax,%eax
  401985:	0f 94 c0             	sete   %al
  401988:	48 8b 5c 24 78       	mov    0x78(%rsp),%rbx
  40198d:	64 48 33 1c 25 28 00 	xor    %fs:0x28,%rbx
  401994:	00 00 
  401996:	74 05                	je     40199d <hexmatch+0xa5>
  401998:	e8 63 f3 ff ff       	callq  400d00 <__stack_chk_fail@plt>
  40199d:	0f b6 c0             	movzbl %al,%eax
  4019a0:	48 83 ec 80          	sub    $0xffffffffffffff80,%rsp
  4019a4:	5b                   	pop    %rbx
  4019a5:	5d                   	pop    %rbp
  4019a6:	41 5c                	pop    %r12
  4019a8:	c3                   	retq   

00000000004019a9 <touch3>:
  4019a9:	53                   	push   %rbx
  4019aa:	48 89 fb             	mov    %rdi,%rbx
  4019ad:	c7 05 65 3b 20 00 03 	movl   $0x3,0x203b65(%rip)        # 60551c <vlevel>
  4019b4:	00 00 00 
  4019b7:	48 89 fe             	mov    %rdi,%rsi
  4019ba:	8b 3d 64 3b 20 00    	mov    0x203b64(%rip),%edi        # 605524 <cookie>
  4019c0:	e8 33 ff ff ff       	callq  4018f8 <hexmatch>
  4019c5:	85 c0                	test   %eax,%eax
  4019c7:	74 23                	je     4019ec <touch3+0x43>
  4019c9:	48 89 da             	mov    %rbx,%rdx
  4019cc:	be 10 33 40 00       	mov    $0x403310,%esi
  4019d1:	bf 01 00 00 00       	mov    $0x1,%edi
  4019d6:	b8 00 00 00 00       	mov    $0x0,%eax
  4019db:	e8 40 f4 ff ff       	callq  400e20 <__printf_chk@plt>
  4019e0:	bf 03 00 00 00       	mov    $0x3,%edi
  4019e5:	e8 60 04 00 00       	callq  401e4a <validate>
  4019ea:	eb 21                	jmp    401a0d <touch3+0x64>
  4019ec:	48 89 da             	mov    %rbx,%rdx
  4019ef:	be 38 33 40 00       	mov    $0x403338,%esi
  4019f4:	bf 01 00 00 00       	mov    $0x1,%edi
  4019f9:	b8 00 00 00 00       	mov    $0x0,%eax
  4019fe:	e8 1d f4 ff ff       	callq  400e20 <__printf_chk@plt>
  401a03:	bf 03 00 00 00       	mov    $0x3,%edi
  401a08:	e8 ff 04 00 00       	callq  401f0c <fail>
  401a0d:	bf 00 00 00 00       	mov    $0x0,%edi
  401a12:	e8 59 f4 ff ff       	callq  400e70 <exit@plt>

0000000000401a17 <test>:
  401a17:	48 83 ec 08          	sub    $0x8,%rsp
  401a1b:	b8 00 00 00 00       	mov    $0x0,%eax
  401a20:	e8 31 fe ff ff       	callq  401856 <getbuf>
  401a25:	89 c2                	mov    %eax,%edx
  401a27:	be 60 33 40 00       	mov    $0x403360,%esi
  401a2c:	bf 01 00 00 00       	mov    $0x1,%edi
  401a31:	b8 00 00 00 00       	mov    $0x0,%eax
  401a36:	e8 e5 f3 ff ff       	callq  400e20 <__printf_chk@plt>
  401a3b:	48 83 c4 08          	add    $0x8,%rsp
  401a3f:	c3                   	retq   

0000000000401a40 <start_farm>:
  401a40:	b8 01 00 00 00       	mov    $0x1,%eax
  401a45:	c3                   	retq   

0000000000401a46 <addval_174>:
  401a46:	8d 87 58 90 90 90    	lea    -0x6f6f6fa8(%rdi),%eax
  401a4c:	c3                   	retq   

0000000000401a4d <getval_396>:
  401a4d:	b8 b9 42 50 90       	mov    $0x905042b9,%eax
  401a52:	c3                   	retq   

0000000000401a53 <setval_264>:
  401a53:	c7 07 48 89 c7 c3    	movl   $0xc3c78948,(%rdi)
  401a59:	c3                   	retq   

0000000000401a5a <setval_164>:
  401a5a:	c7 07 48 89 c7 92    	movl   $0x92c78948,(%rdi)
  401a60:	c3                   	retq   

0000000000401a61 <addval_138>:
  401a61:	8d 87 48 89 c7 c3    	lea    -0x3c3876b8(%rdi),%eax
  401a67:	c3                   	retq   

0000000000401a68 <setval_473>:
  401a68:	c7 07 aa 08 89 c7    	movl   $0xc78908aa,(%rdi)
  401a6e:	c3                   	retq   

0000000000401a6f <addval_201>:
  401a6f:	8d 87 5b 2e 18 90    	lea    -0x6fe7d1a5(%rdi),%eax
  401a75:	c3                   	retq   

0000000000401a76 <getval_330>:
  401a76:	b8 58 90 90 90       	mov    $0x90909058,%eax
  401a7b:	c3                   	retq   

0000000000401a7c <mid_farm>:
  401a7c:	b8 01 00 00 00       	mov    $0x1,%eax
  401a81:	c3                   	retq   

0000000000401a82 <add_xy>:
  401a82:	48 8d 04 37          	lea    (%rdi,%rsi,1),%rax
  401a86:	c3                   	retq   

0000000000401a87 <addval_403>:
  401a87:	8d 87 68 89 e0 c3    	lea    -0x3c1f7698(%rdi),%eax
  401a8d:	c3                   	retq   

0000000000401a8e <setval_309>:
  401a8e:	c7 07 89 d1 20 c0    	movl   $0xc020d189,(%rdi)
  401a94:	c3                   	retq   

0000000000401a95 <getval_107>:
  401a95:	b8 89 c2 90 90       	mov    $0x9090c289,%eax
  401a9a:	c3                   	retq   

0000000000401a9b <addval_313>:
  401a9b:	8d 87 48 8d e0 90    	lea    -0x6f1f72b8(%rdi),%eax
  401aa1:	c3                   	retq   

0000000000401aa2 <setval_155>:
  401aa2:	c7 07 8b c2 38 c9    	movl   $0xc938c28b,(%rdi)
  401aa8:	c3                   	retq   

0000000000401aa9 <addval_357>:
  401aa9:	8d 87 48 89 e0 90    	lea    -0x6f1f76b8(%rdi),%eax
  401aaf:	c3                   	retq   

0000000000401ab0 <addval_437>:
  401ab0:	8d 87 89 c2 18 db    	lea    -0x24e73d77(%rdi),%eax
  401ab6:	c3                   	retq   

0000000000401ab7 <getval_460>:
  401ab7:	b8 89 ce 90 c7       	mov    $0xc790ce89,%eax
  401abc:	c3                   	retq   

0000000000401abd <setval_190>:
  401abd:	c7 07 89 ce 30 c0    	movl   $0xc030ce89,(%rdi)
  401ac3:	c3                   	retq   

0000000000401ac4 <addval_334>:
  401ac4:	8d 87 58 89 e0 c3    	lea    -0x3c1f76a8(%rdi),%eax
  401aca:	c3                   	retq   

0000000000401acb <addval_461>:
  401acb:	8d 87 48 89 e0 92    	lea    -0x6d1f76b8(%rdi),%eax
  401ad1:	c3                   	retq   

0000000000401ad2 <getval_222>:
  401ad2:	b8 89 c2 c4 c0       	mov    $0xc0c4c289,%eax
  401ad7:	c3                   	retq   

0000000000401ad8 <getval_220>:
  401ad8:	b8 89 ce 90 90       	mov    $0x9090ce89,%eax
  401add:	c3                   	retq   

0000000000401ade <getval_436>:
  401ade:	b8 89 ce 90 c3       	mov    $0xc390ce89,%eax
  401ae3:	c3                   	retq   

0000000000401ae4 <addval_170>:
  401ae4:	8d 87 8b c2 90 c3    	lea    -0x3c6f3d75(%rdi),%eax
  401aea:	c3                   	retq   

0000000000401aeb <setval_426>:
  401aeb:	c7 07 48 89 e0 c3    	movl   $0xc3e08948,(%rdi)
  401af1:	c3                   	retq   

0000000000401af2 <setval_270>:
  401af2:	c7 07 99 d1 38 d2    	movl   $0xd238d199,(%rdi)
  401af8:	c3                   	retq   

0000000000401af9 <setval_200>:
  401af9:	c7 07 89 c2 94 90    	movl   $0x9094c289,(%rdi)
  401aff:	c3                   	retq   

0000000000401b00 <addval_361>:
  401b00:	8d 87 89 ce 18 d2    	lea    -0x2de73177(%rdi),%eax
  401b06:	c3                   	retq   

0000000000401b07 <setval_410>:
  401b07:	c7 07 8d d1 84 d2    	movl   $0xd284d18d,(%rdi)
  401b0d:	c3                   	retq   

0000000000401b0e <addval_128>:
  401b0e:	8d 87 89 ce 18 c0    	lea    -0x3fe73177(%rdi),%eax
  401b14:	c3                   	retq   

0000000000401b15 <setval_472>:
  401b15:	c7 07 89 c2 28 c0    	movl   $0xc028c289,(%rdi)
  401b1b:	c3                   	retq   

0000000000401b1c <setval_491>:
  401b1c:	c7 07 89 d1 28 c0    	movl   $0xc028d189,(%rdi)
  401b22:	c3                   	retq   

0000000000401b23 <setval_298>:
  401b23:	c7 07 48 8d e0 c3    	movl   $0xc3e08d48,(%rdi)
  401b29:	c3                   	retq   

0000000000401b2a <addval_433>:
  401b2a:	8d 87 f8 89 ce 92    	lea    -0x6d317608(%rdi),%eax
  401b30:	c3                   	retq   

0000000000401b31 <setval_195>:
  401b31:	c7 07 89 c2 90 c3    	movl   $0xc390c289,(%rdi)
  401b37:	c3                   	retq   

0000000000401b38 <getval_335>:
  401b38:	b8 8d d1 20 c9       	mov    $0xc920d18d,%eax
  401b3d:	c3                   	retq   

0000000000401b3e <addval_232>:
  401b3e:	8d 87 89 d1 28 d2    	lea    -0x2dd72e77(%rdi),%eax
  401b44:	c3                   	retq   

0000000000401b45 <addval_360>:
  401b45:	8d 87 40 89 e0 c3    	lea    -0x3c1f76c0(%rdi),%eax
  401b4b:	c3                   	retq   

0000000000401b4c <getval_297>:
  401b4c:	b8 81 ce 38 db       	mov    $0xdb38ce81,%eax
  401b51:	c3                   	retq   

0000000000401b52 <getval_181>:
  401b52:	b8 89 d1 90 90       	mov    $0x9090d189,%eax
  401b57:	c3                   	retq   

0000000000401b58 <setval_444>:
  401b58:	c7 07 99 d1 20 c0    	movl   $0xc020d199,(%rdi)
  401b5e:	c3                   	retq   

0000000000401b5f <end_farm>:
  401b5f:	b8 01 00 00 00       	mov    $0x1,%eax
  401b64:	c3                   	retq   

0000000000401b65 <save_char>:
  401b65:	8b 05 d9 45 20 00    	mov    0x2045d9(%rip),%eax        # 606144 <gets_cnt>
  401b6b:	3d ff 03 00 00       	cmp    $0x3ff,%eax
  401b70:	7f 49                	jg     401bbb <save_char+0x56>
  401b72:	8d 14 40             	lea    (%rax,%rax,2),%edx
  401b75:	89 f9                	mov    %edi,%ecx
  401b77:	c0 e9 04             	shr    $0x4,%cl
  401b7a:	83 e1 0f             	and    $0xf,%ecx
  401b7d:	0f b6 b1 80 36 40 00 	movzbl 0x403680(%rcx),%esi
  401b84:	48 63 ca             	movslq %edx,%rcx
  401b87:	40 88 b1 40 55 60 00 	mov    %sil,0x605540(%rcx)
  401b8e:	8d 4a 01             	lea    0x1(%rdx),%ecx
  401b91:	83 e7 0f             	and    $0xf,%edi
  401b94:	0f b6 b7 80 36 40 00 	movzbl 0x403680(%rdi),%esi
  401b9b:	48 63 c9             	movslq %ecx,%rcx
  401b9e:	40 88 b1 40 55 60 00 	mov    %sil,0x605540(%rcx)
  401ba5:	83 c2 02             	add    $0x2,%edx
  401ba8:	48 63 d2             	movslq %edx,%rdx
  401bab:	c6 82 40 55 60 00 20 	movb   $0x20,0x605540(%rdx)
  401bb2:	83 c0 01             	add    $0x1,%eax
  401bb5:	89 05 89 45 20 00    	mov    %eax,0x204589(%rip)        # 606144 <gets_cnt>
  401bbb:	f3 c3                	repz retq 

0000000000401bbd <save_term>:
  401bbd:	8b 05 81 45 20 00    	mov    0x204581(%rip),%eax        # 606144 <gets_cnt>
  401bc3:	8d 04 40             	lea    (%rax,%rax,2),%eax
  401bc6:	48 98                	cltq   
  401bc8:	c6 80 40 55 60 00 00 	movb   $0x0,0x605540(%rax)
  401bcf:	c3                   	retq   

0000000000401bd0 <check_fail>:
  401bd0:	48 83 ec 08          	sub    $0x8,%rsp
  401bd4:	0f be 15 6d 45 20 00 	movsbl 0x20456d(%rip),%edx        # 606148 <target_prefix>
  401bdb:	41 b8 40 55 60 00    	mov    $0x605540,%r8d
  401be1:	8b 0d 31 39 20 00    	mov    0x203931(%rip),%ecx        # 605518 <check_level>
  401be7:	be 83 33 40 00       	mov    $0x403383,%esi
  401bec:	bf 01 00 00 00       	mov    $0x1,%edi
  401bf1:	b8 00 00 00 00       	mov    $0x0,%eax
  401bf6:	e8 25 f2 ff ff       	callq  400e20 <__printf_chk@plt>
  401bfb:	bf 01 00 00 00       	mov    $0x1,%edi
  401c00:	e8 6b f2 ff ff       	callq  400e70 <exit@plt>

0000000000401c05 <Gets>:
  401c05:	41 54                	push   %r12
  401c07:	55                   	push   %rbp
  401c08:	53                   	push   %rbx
  401c09:	49 89 fc             	mov    %rdi,%r12
  401c0c:	c7 05 2e 45 20 00 00 	movl   $0x0,0x20452e(%rip)        # 606144 <gets_cnt>
  401c13:	00 00 00 
  401c16:	48 89 fb             	mov    %rdi,%rbx
  401c19:	eb 11                	jmp    401c2c <Gets+0x27>
  401c1b:	48 8d 6b 01          	lea    0x1(%rbx),%rbp
  401c1f:	88 03                	mov    %al,(%rbx)
  401c21:	0f b6 f8             	movzbl %al,%edi
  401c24:	e8 3c ff ff ff       	callq  401b65 <save_char>
  401c29:	48 89 eb             	mov    %rbp,%rbx
  401c2c:	48 8b 3d dd 38 20 00 	mov    0x2038dd(%rip),%rdi        # 605510 <infile>
  401c33:	e8 b8 f1 ff ff       	callq  400df0 <_IO_getc@plt>
  401c38:	83 f8 ff             	cmp    $0xffffffff,%eax
  401c3b:	74 05                	je     401c42 <Gets+0x3d>
  401c3d:	83 f8 0a             	cmp    $0xa,%eax
  401c40:	75 d9                	jne    401c1b <Gets+0x16>
  401c42:	c6 03 00             	movb   $0x0,(%rbx)
  401c45:	b8 00 00 00 00       	mov    $0x0,%eax
  401c4a:	e8 6e ff ff ff       	callq  401bbd <save_term>
  401c4f:	4c 89 e0             	mov    %r12,%rax
  401c52:	5b                   	pop    %rbx
  401c53:	5d                   	pop    %rbp
  401c54:	41 5c                	pop    %r12
  401c56:	c3                   	retq   

0000000000401c57 <notify_server>:
  401c57:	53                   	push   %rbx
  401c58:	48 81 ec 10 40 00 00 	sub    $0x4010,%rsp
  401c5f:	64 48 8b 04 25 28 00 	mov    %fs:0x28,%rax
  401c66:	00 00 
  401c68:	48 89 84 24 08 40 00 	mov    %rax,0x4008(%rsp)
  401c6f:	00 
  401c70:	31 c0                	xor    %eax,%eax
  401c72:	83 3d af 38 20 00 00 	cmpl   $0x0,0x2038af(%rip)        # 605528 <is_checker>
  401c79:	0f 85 aa 01 00 00    	jne    401e29 <notify_server+0x1d2>
  401c7f:	89 fb                	mov    %edi,%ebx
  401c81:	8b 05 bd 44 20 00    	mov    0x2044bd(%rip),%eax        # 606144 <gets_cnt>
  401c87:	83 c0 64             	add    $0x64,%eax
  401c8a:	3d 00 20 00 00       	cmp    $0x2000,%eax
  401c8f:	7e 1e                	jle    401caf <notify_server+0x58>
  401c91:	be b8 34 40 00       	mov    $0x4034b8,%esi
  401c96:	bf 01 00 00 00       	mov    $0x1,%edi
  401c9b:	b8 00 00 00 00       	mov    $0x0,%eax
  401ca0:	e8 7b f1 ff ff       	callq  400e20 <__printf_chk@plt>
  401ca5:	bf 01 00 00 00       	mov    $0x1,%edi
  401caa:	e8 c1 f1 ff ff       	callq  400e70 <exit@plt>
  401caf:	0f be 05 92 44 20 00 	movsbl 0x204492(%rip),%eax        # 606148 <target_prefix>
  401cb6:	83 3d eb 37 20 00 00 	cmpl   $0x0,0x2037eb(%rip)        # 6054a8 <notify>
  401cbd:	74 08                	je     401cc7 <notify_server+0x70>
  401cbf:	8b 15 5b 38 20 00    	mov    0x20385b(%rip),%edx        # 605520 <authkey>
  401cc5:	eb 05                	jmp    401ccc <notify_server+0x75>
  401cc7:	ba ff ff ff ff       	mov    $0xffffffff,%edx
  401ccc:	85 db                	test   %ebx,%ebx
  401cce:	74 08                	je     401cd8 <notify_server+0x81>
  401cd0:	41 b9 99 33 40 00    	mov    $0x403399,%r9d
  401cd6:	eb 06                	jmp    401cde <notify_server+0x87>
  401cd8:	41 b9 9e 33 40 00    	mov    $0x40339e,%r9d
  401cde:	68 40 55 60 00       	pushq  $0x605540
  401ce3:	56                   	push   %rsi
  401ce4:	50                   	push   %rax
  401ce5:	52                   	push   %rdx
  401ce6:	44 8b 05 7b 34 20 00 	mov    0x20347b(%rip),%r8d        # 605168 <target_id>
  401ced:	b9 a3 33 40 00       	mov    $0x4033a3,%ecx
  401cf2:	ba 00 20 00 00       	mov    $0x2000,%edx
  401cf7:	be 01 00 00 00       	mov    $0x1,%esi
  401cfc:	48 8d 7c 24 20       	lea    0x20(%rsp),%rdi
  401d01:	b8 00 00 00 00       	mov    $0x0,%eax
  401d06:	e8 95 f1 ff ff       	callq  400ea0 <__sprintf_chk@plt>
  401d0b:	48 83 c4 20          	add    $0x20,%rsp
  401d0f:	83 3d 92 37 20 00 00 	cmpl   $0x0,0x203792(%rip)        # 6054a8 <notify>
  401d16:	0f 84 81 00 00 00    	je     401d9d <notify_server+0x146>
  401d1c:	85 db                	test   %ebx,%ebx
  401d1e:	74 6e                	je     401d8e <notify_server+0x137>
  401d20:	4c 8d 8c 24 00 20 00 	lea    0x2000(%rsp),%r9
  401d27:	00 
  401d28:	41 b8 00 00 00 00    	mov    $0x0,%r8d
  401d2e:	48 89 e1             	mov    %rsp,%rcx
  401d31:	48 8b 15 38 34 20 00 	mov    0x203438(%rip),%rdx        # 605170 <lab>
  401d38:	48 8b 35 39 34 20 00 	mov    0x203439(%rip),%rsi        # 605178 <course>
  401d3f:	48 8b 3d 1a 34 20 00 	mov    0x20341a(%rip),%rdi        # 605160 <user_id>
  401d46:	e8 bb 10 00 00       	callq  402e06 <driver_post>
  401d4b:	85 c0                	test   %eax,%eax
  401d4d:	79 26                	jns    401d75 <notify_server+0x11e>
  401d4f:	48 8d 94 24 00 20 00 	lea    0x2000(%rsp),%rdx
  401d56:	00 
  401d57:	be bf 33 40 00       	mov    $0x4033bf,%esi
  401d5c:	bf 01 00 00 00       	mov    $0x1,%edi
  401d61:	b8 00 00 00 00       	mov    $0x0,%eax
  401d66:	e8 b5 f0 ff ff       	callq  400e20 <__printf_chk@plt>
  401d6b:	bf 01 00 00 00       	mov    $0x1,%edi
  401d70:	e8 fb f0 ff ff       	callq  400e70 <exit@plt>
  401d75:	bf e8 34 40 00       	mov    $0x4034e8,%edi
  401d7a:	e8 61 ef ff ff       	callq  400ce0 <puts@plt>
  401d7f:	bf cb 33 40 00       	mov    $0x4033cb,%edi
  401d84:	e8 57 ef ff ff       	callq  400ce0 <puts@plt>
  401d89:	e9 9b 00 00 00       	jmpq   401e29 <notify_server+0x1d2>
  401d8e:	bf d5 33 40 00       	mov    $0x4033d5,%edi
  401d93:	e8 48 ef ff ff       	callq  400ce0 <puts@plt>
  401d98:	e9 8c 00 00 00       	jmpq   401e29 <notify_server+0x1d2>
  401d9d:	85 db                	test   %ebx,%ebx
  401d9f:	74 07                	je     401da8 <notify_server+0x151>
  401da1:	ba 99 33 40 00       	mov    $0x403399,%edx
  401da6:	eb 05                	jmp    401dad <notify_server+0x156>
  401da8:	ba 9e 33 40 00       	mov    $0x40339e,%edx
  401dad:	be 20 35 40 00       	mov    $0x403520,%esi
  401db2:	bf 01 00 00 00       	mov    $0x1,%edi
  401db7:	b8 00 00 00 00       	mov    $0x0,%eax
  401dbc:	e8 5f f0 ff ff       	callq  400e20 <__printf_chk@plt>
  401dc1:	48 8b 15 98 33 20 00 	mov    0x203398(%rip),%rdx        # 605160 <user_id>
  401dc8:	be dc 33 40 00       	mov    $0x4033dc,%esi
  401dcd:	bf 01 00 00 00       	mov    $0x1,%edi
  401dd2:	b8 00 00 00 00       	mov    $0x0,%eax
  401dd7:	e8 44 f0 ff ff       	callq  400e20 <__printf_chk@plt>
  401ddc:	48 8b 15 95 33 20 00 	mov    0x203395(%rip),%rdx        # 605178 <course>
  401de3:	be e9 33 40 00       	mov    $0x4033e9,%esi
  401de8:	bf 01 00 00 00       	mov    $0x1,%edi
  401ded:	b8 00 00 00 00       	mov    $0x0,%eax
  401df2:	e8 29 f0 ff ff       	callq  400e20 <__printf_chk@plt>
  401df7:	48 8b 15 72 33 20 00 	mov    0x203372(%rip),%rdx        # 605170 <lab>
  401dfe:	be f5 33 40 00       	mov    $0x4033f5,%esi
  401e03:	bf 01 00 00 00       	mov    $0x1,%edi
  401e08:	b8 00 00 00 00       	mov    $0x0,%eax
  401e0d:	e8 0e f0 ff ff       	callq  400e20 <__printf_chk@plt>
  401e12:	48 89 e2             	mov    %rsp,%rdx
  401e15:	be fe 33 40 00       	mov    $0x4033fe,%esi
  401e1a:	bf 01 00 00 00       	mov    $0x1,%edi
  401e1f:	b8 00 00 00 00       	mov    $0x0,%eax
  401e24:	e8 f7 ef ff ff       	callq  400e20 <__printf_chk@plt>
  401e29:	48 8b 84 24 08 40 00 	mov    0x4008(%rsp),%rax
  401e30:	00 
  401e31:	64 48 33 04 25 28 00 	xor    %fs:0x28,%rax
  401e38:	00 00 
  401e3a:	74 05                	je     401e41 <notify_server+0x1ea>
  401e3c:	e8 bf ee ff ff       	callq  400d00 <__stack_chk_fail@plt>
  401e41:	48 81 c4 10 40 00 00 	add    $0x4010,%rsp
  401e48:	5b                   	pop    %rbx
  401e49:	c3                   	retq   

0000000000401e4a <validate>:
  401e4a:	53                   	push   %rbx
  401e4b:	89 fb                	mov    %edi,%ebx
  401e4d:	83 3d d4 36 20 00 00 	cmpl   $0x0,0x2036d4(%rip)        # 605528 <is_checker>
  401e54:	74 6b                	je     401ec1 <validate+0x77>
  401e56:	39 3d c0 36 20 00    	cmp    %edi,0x2036c0(%rip)        # 60551c <vlevel>
  401e5c:	74 14                	je     401e72 <validate+0x28>
  401e5e:	bf 0a 34 40 00       	mov    $0x40340a,%edi
  401e63:	e8 78 ee ff ff       	callq  400ce0 <puts@plt>
  401e68:	b8 00 00 00 00       	mov    $0x0,%eax
  401e6d:	e8 5e fd ff ff       	callq  401bd0 <check_fail>
  401e72:	8b 15 a0 36 20 00    	mov    0x2036a0(%rip),%edx        # 605518 <check_level>
  401e78:	39 d7                	cmp    %edx,%edi
  401e7a:	74 20                	je     401e9c <validate+0x52>
  401e7c:	89 f9                	mov    %edi,%ecx
  401e7e:	be 48 35 40 00       	mov    $0x403548,%esi
  401e83:	bf 01 00 00 00       	mov    $0x1,%edi
  401e88:	b8 00 00 00 00       	mov    $0x0,%eax
  401e8d:	e8 8e ef ff ff       	callq  400e20 <__printf_chk@plt>
  401e92:	b8 00 00 00 00       	mov    $0x0,%eax
  401e97:	e8 34 fd ff ff       	callq  401bd0 <check_fail>
  401e9c:	0f be 15 a5 42 20 00 	movsbl 0x2042a5(%rip),%edx        # 606148 <target_prefix>
  401ea3:	41 b8 40 55 60 00    	mov    $0x605540,%r8d
  401ea9:	89 f9                	mov    %edi,%ecx
  401eab:	be 28 34 40 00       	mov    $0x403428,%esi
  401eb0:	bf 01 00 00 00       	mov    $0x1,%edi
  401eb5:	b8 00 00 00 00       	mov    $0x0,%eax
  401eba:	e8 61 ef ff ff       	callq  400e20 <__printf_chk@plt>
  401ebf:	eb 49                	jmp    401f0a <validate+0xc0>
  401ec1:	3b 3d 55 36 20 00    	cmp    0x203655(%rip),%edi        # 60551c <vlevel>
  401ec7:	74 18                	je     401ee1 <validate+0x97>
  401ec9:	bf 0a 34 40 00       	mov    $0x40340a,%edi
  401ece:	e8 0d ee ff ff       	callq  400ce0 <puts@plt>
  401ed3:	89 de                	mov    %ebx,%esi
  401ed5:	bf 00 00 00 00       	mov    $0x0,%edi
  401eda:	e8 78 fd ff ff       	callq  401c57 <notify_server>
  401edf:	eb 29                	jmp    401f0a <validate+0xc0>
  401ee1:	0f be 0d 60 42 20 00 	movsbl 0x204260(%rip),%ecx        # 606148 <target_prefix>
  401ee8:	89 fa                	mov    %edi,%edx
  401eea:	be 70 35 40 00       	mov    $0x403570,%esi
  401eef:	bf 01 00 00 00       	mov    $0x1,%edi
  401ef4:	b8 00 00 00 00       	mov    $0x0,%eax
  401ef9:	e8 22 ef ff ff       	callq  400e20 <__printf_chk@plt>
  401efe:	89 de                	mov    %ebx,%esi
  401f00:	bf 01 00 00 00       	mov    $0x1,%edi
  401f05:	e8 4d fd ff ff       	callq  401c57 <notify_server>
  401f0a:	5b                   	pop    %rbx
  401f0b:	c3                   	retq   

0000000000401f0c <fail>:
  401f0c:	48 83 ec 08          	sub    $0x8,%rsp
  401f10:	83 3d 11 36 20 00 00 	cmpl   $0x0,0x203611(%rip)        # 605528 <is_checker>
  401f17:	74 0a                	je     401f23 <fail+0x17>
  401f19:	b8 00 00 00 00       	mov    $0x0,%eax
  401f1e:	e8 ad fc ff ff       	callq  401bd0 <check_fail>
  401f23:	89 fe                	mov    %edi,%esi
  401f25:	bf 00 00 00 00       	mov    $0x0,%edi
  401f2a:	e8 28 fd ff ff       	callq  401c57 <notify_server>
  401f2f:	48 83 c4 08          	add    $0x8,%rsp
  401f33:	c3                   	retq   

0000000000401f34 <bushandler>:
  401f34:	48 83 ec 08          	sub    $0x8,%rsp
  401f38:	83 3d e9 35 20 00 00 	cmpl   $0x0,0x2035e9(%rip)        # 605528 <is_checker>
  401f3f:	74 14                	je     401f55 <bushandler+0x21>
  401f41:	bf 3d 34 40 00       	mov    $0x40343d,%edi
  401f46:	e8 95 ed ff ff       	callq  400ce0 <puts@plt>
  401f4b:	b8 00 00 00 00       	mov    $0x0,%eax
  401f50:	e8 7b fc ff ff       	callq  401bd0 <check_fail>
  401f55:	bf a8 35 40 00       	mov    $0x4035a8,%edi
  401f5a:	e8 81 ed ff ff       	callq  400ce0 <puts@plt>
  401f5f:	bf 47 34 40 00       	mov    $0x403447,%edi
  401f64:	e8 77 ed ff ff       	callq  400ce0 <puts@plt>
  401f69:	be 00 00 00 00       	mov    $0x0,%esi
  401f6e:	bf 00 00 00 00       	mov    $0x0,%edi
  401f73:	e8 df fc ff ff       	callq  401c57 <notify_server>
  401f78:	bf 01 00 00 00       	mov    $0x1,%edi
  401f7d:	e8 ee ee ff ff       	callq  400e70 <exit@plt>

0000000000401f82 <seghandler>:
  401f82:	48 83 ec 08          	sub    $0x8,%rsp
  401f86:	83 3d 9b 35 20 00 00 	cmpl   $0x0,0x20359b(%rip)        # 605528 <is_checker>
  401f8d:	74 14                	je     401fa3 <seghandler+0x21>
  401f8f:	bf 5d 34 40 00       	mov    $0x40345d,%edi
  401f94:	e8 47 ed ff ff       	callq  400ce0 <puts@plt>
  401f99:	b8 00 00 00 00       	mov    $0x0,%eax
  401f9e:	e8 2d fc ff ff       	callq  401bd0 <check_fail>
  401fa3:	bf c8 35 40 00       	mov    $0x4035c8,%edi
  401fa8:	e8 33 ed ff ff       	callq  400ce0 <puts@plt>
  401fad:	bf 47 34 40 00       	mov    $0x403447,%edi
  401fb2:	e8 29 ed ff ff       	callq  400ce0 <puts@plt>
  401fb7:	be 00 00 00 00       	mov    $0x0,%esi
  401fbc:	bf 00 00 00 00       	mov    $0x0,%edi
  401fc1:	e8 91 fc ff ff       	callq  401c57 <notify_server>
  401fc6:	bf 01 00 00 00       	mov    $0x1,%edi
  401fcb:	e8 a0 ee ff ff       	callq  400e70 <exit@plt>

0000000000401fd0 <illegalhandler>:
  401fd0:	48 83 ec 08          	sub    $0x8,%rsp
  401fd4:	83 3d 4d 35 20 00 00 	cmpl   $0x0,0x20354d(%rip)        # 605528 <is_checker>
  401fdb:	74 14                	je     401ff1 <illegalhandler+0x21>
  401fdd:	bf 70 34 40 00       	mov    $0x403470,%edi
  401fe2:	e8 f9 ec ff ff       	callq  400ce0 <puts@plt>
  401fe7:	b8 00 00 00 00       	mov    $0x0,%eax
  401fec:	e8 df fb ff ff       	callq  401bd0 <check_fail>
  401ff1:	bf f0 35 40 00       	mov    $0x4035f0,%edi
  401ff6:	e8 e5 ec ff ff       	callq  400ce0 <puts@plt>
  401ffb:	bf 47 34 40 00       	mov    $0x403447,%edi
  402000:	e8 db ec ff ff       	callq  400ce0 <puts@plt>
  402005:	be 00 00 00 00       	mov    $0x0,%esi
  40200a:	bf 00 00 00 00       	mov    $0x0,%edi
  40200f:	e8 43 fc ff ff       	callq  401c57 <notify_server>
  402014:	bf 01 00 00 00       	mov    $0x1,%edi
  402019:	e8 52 ee ff ff       	callq  400e70 <exit@plt>

000000000040201e <sigalrmhandler>:
  40201e:	48 83 ec 08          	sub    $0x8,%rsp
  402022:	83 3d ff 34 20 00 00 	cmpl   $0x0,0x2034ff(%rip)        # 605528 <is_checker>
  402029:	74 14                	je     40203f <sigalrmhandler+0x21>
  40202b:	bf 84 34 40 00       	mov    $0x403484,%edi
  402030:	e8 ab ec ff ff       	callq  400ce0 <puts@plt>
  402035:	b8 00 00 00 00       	mov    $0x0,%eax
  40203a:	e8 91 fb ff ff       	callq  401bd0 <check_fail>
  40203f:	ba 05 00 00 00       	mov    $0x5,%edx
  402044:	be 20 36 40 00       	mov    $0x403620,%esi
  402049:	bf 01 00 00 00       	mov    $0x1,%edi
  40204e:	b8 00 00 00 00       	mov    $0x0,%eax
  402053:	e8 c8 ed ff ff       	callq  400e20 <__printf_chk@plt>
  402058:	be 00 00 00 00       	mov    $0x0,%esi
  40205d:	bf 00 00 00 00       	mov    $0x0,%edi
  402062:	e8 f0 fb ff ff       	callq  401c57 <notify_server>
  402067:	bf 01 00 00 00       	mov    $0x1,%edi
  40206c:	e8 ff ed ff ff       	callq  400e70 <exit@plt>

0000000000402071 <launch>:
  402071:	55                   	push   %rbp
  402072:	48 89 e5             	mov    %rsp,%rbp
  402075:	48 83 ec 10          	sub    $0x10,%rsp
  402079:	48 89 fa             	mov    %rdi,%rdx
  40207c:	64 48 8b 04 25 28 00 	mov    %fs:0x28,%rax
  402083:	00 00 
  402085:	48 89 45 f8          	mov    %rax,-0x8(%rbp)
  402089:	31 c0                	xor    %eax,%eax
  40208b:	48 8d 47 1e          	lea    0x1e(%rdi),%rax
  40208f:	48 83 e0 f0          	and    $0xfffffffffffffff0,%rax
  402093:	48 29 c4             	sub    %rax,%rsp
  402096:	48 8d 7c 24 0f       	lea    0xf(%rsp),%rdi
  40209b:	48 83 e7 f0          	and    $0xfffffffffffffff0,%rdi
  40209f:	be f4 00 00 00       	mov    $0xf4,%esi
  4020a4:	e8 77 ec ff ff       	callq  400d20 <memset@plt>
  4020a9:	48 8b 05 10 34 20 00 	mov    0x203410(%rip),%rax        # 6054c0 <stdin@@GLIBC_2.2.5>
  4020b0:	48 39 05 59 34 20 00 	cmp    %rax,0x203459(%rip)        # 605510 <infile>
  4020b7:	75 14                	jne    4020cd <launch+0x5c>
  4020b9:	be 8c 34 40 00       	mov    $0x40348c,%esi
  4020be:	bf 01 00 00 00       	mov    $0x1,%edi
  4020c3:	b8 00 00 00 00       	mov    $0x0,%eax
  4020c8:	e8 53 ed ff ff       	callq  400e20 <__printf_chk@plt>
  4020cd:	c7 05 45 34 20 00 00 	movl   $0x0,0x203445(%rip)        # 60551c <vlevel>
  4020d4:	00 00 00 
  4020d7:	b8 00 00 00 00       	mov    $0x0,%eax
  4020dc:	e8 36 f9 ff ff       	callq  401a17 <test>
  4020e1:	83 3d 40 34 20 00 00 	cmpl   $0x0,0x203440(%rip)        # 605528 <is_checker>
  4020e8:	74 14                	je     4020fe <launch+0x8d>
  4020ea:	bf 99 34 40 00       	mov    $0x403499,%edi
  4020ef:	e8 ec eb ff ff       	callq  400ce0 <puts@plt>
  4020f4:	b8 00 00 00 00       	mov    $0x0,%eax
  4020f9:	e8 d2 fa ff ff       	callq  401bd0 <check_fail>
  4020fe:	bf a4 34 40 00       	mov    $0x4034a4,%edi
  402103:	e8 d8 eb ff ff       	callq  400ce0 <puts@plt>
  402108:	48 8b 45 f8          	mov    -0x8(%rbp),%rax
  40210c:	64 48 33 04 25 28 00 	xor    %fs:0x28,%rax
  402113:	00 00 
  402115:	74 05                	je     40211c <launch+0xab>
  402117:	e8 e4 eb ff ff       	callq  400d00 <__stack_chk_fail@plt>
  40211c:	c9                   	leaveq 
  40211d:	c3                   	retq   

000000000040211e <stable_launch>:
  40211e:	53                   	push   %rbx
  40211f:	48 89 3d e2 33 20 00 	mov    %rdi,0x2033e2(%rip)        # 605508 <global_offset>
  402126:	41 b9 00 00 00 00    	mov    $0x0,%r9d
  40212c:	41 b8 00 00 00 00    	mov    $0x0,%r8d
  402132:	b9 32 01 00 00       	mov    $0x132,%ecx
  402137:	ba 07 00 00 00       	mov    $0x7,%edx
  40213c:	be 00 00 10 00       	mov    $0x100000,%esi
  402141:	bf 00 60 58 55       	mov    $0x55586000,%edi
  402146:	e8 c5 eb ff ff       	callq  400d10 <mmap@plt>
  40214b:	48 89 c3             	mov    %rax,%rbx
  40214e:	48 3d 00 60 58 55    	cmp    $0x55586000,%rax
  402154:	74 37                	je     40218d <stable_launch+0x6f>
  402156:	be 00 00 10 00       	mov    $0x100000,%esi
  40215b:	48 89 c7             	mov    %rax,%rdi
  40215e:	e8 ad ec ff ff       	callq  400e10 <munmap@plt>
  402163:	b9 00 60 58 55       	mov    $0x55586000,%ecx
  402168:	ba 58 36 40 00       	mov    $0x403658,%edx
  40216d:	be 01 00 00 00       	mov    $0x1,%esi
  402172:	48 8b 3d 6f 33 20 00 	mov    0x20336f(%rip),%rdi        # 6054e8 <stderr@@GLIBC_2.2.5>
  402179:	b8 00 00 00 00       	mov    $0x0,%eax
  40217e:	e8 0d ed ff ff       	callq  400e90 <__fprintf_chk@plt>
  402183:	bf 01 00 00 00       	mov    $0x1,%edi
  402188:	e8 e3 ec ff ff       	callq  400e70 <exit@plt>
  40218d:	48 8d 90 f8 ff 0f 00 	lea    0xffff8(%rax),%rdx
  402194:	48 89 15 b5 3f 20 00 	mov    %rdx,0x203fb5(%rip)        # 606150 <stack_top>
  40219b:	48 89 e0             	mov    %rsp,%rax
  40219e:	48 89 d4             	mov    %rdx,%rsp
  4021a1:	48 89 c2             	mov    %rax,%rdx
  4021a4:	48 89 15 55 33 20 00 	mov    %rdx,0x203355(%rip)        # 605500 <global_save_stack>
  4021ab:	48 8b 3d 56 33 20 00 	mov    0x203356(%rip),%rdi        # 605508 <global_offset>
  4021b2:	e8 ba fe ff ff       	callq  402071 <launch>
  4021b7:	48 8b 05 42 33 20 00 	mov    0x203342(%rip),%rax        # 605500 <global_save_stack>
  4021be:	48 89 c4             	mov    %rax,%rsp
  4021c1:	be 00 00 10 00       	mov    $0x100000,%esi
  4021c6:	48 89 df             	mov    %rbx,%rdi
  4021c9:	e8 42 ec ff ff       	callq  400e10 <munmap@plt>
  4021ce:	5b                   	pop    %rbx
  4021cf:	c3                   	retq   

00000000004021d0 <rio_readinitb>:
  4021d0:	89 37                	mov    %esi,(%rdi)
  4021d2:	c7 47 04 00 00 00 00 	movl   $0x0,0x4(%rdi)
  4021d9:	48 8d 47 10          	lea    0x10(%rdi),%rax
  4021dd:	48 89 47 08          	mov    %rax,0x8(%rdi)
  4021e1:	c3                   	retq   

00000000004021e2 <sigalrm_handler>:
  4021e2:	48 83 ec 08          	sub    $0x8,%rsp
  4021e6:	b9 00 00 00 00       	mov    $0x0,%ecx
  4021eb:	ba 90 36 40 00       	mov    $0x403690,%edx
  4021f0:	be 01 00 00 00       	mov    $0x1,%esi
  4021f5:	48 8b 3d ec 32 20 00 	mov    0x2032ec(%rip),%rdi        # 6054e8 <stderr@@GLIBC_2.2.5>
  4021fc:	b8 00 00 00 00       	mov    $0x0,%eax
  402201:	e8 8a ec ff ff       	callq  400e90 <__fprintf_chk@plt>
  402206:	bf 01 00 00 00       	mov    $0x1,%edi
  40220b:	e8 60 ec ff ff       	callq  400e70 <exit@plt>

0000000000402210 <rio_writen>:
  402210:	41 55                	push   %r13
  402212:	41 54                	push   %r12
  402214:	55                   	push   %rbp
  402215:	53                   	push   %rbx
  402216:	48 83 ec 08          	sub    $0x8,%rsp
  40221a:	41 89 fc             	mov    %edi,%r12d
  40221d:	48 89 f5             	mov    %rsi,%rbp
  402220:	49 89 d5             	mov    %rdx,%r13
  402223:	48 89 d3             	mov    %rdx,%rbx
  402226:	eb 28                	jmp    402250 <rio_writen+0x40>
  402228:	48 89 da             	mov    %rbx,%rdx
  40222b:	48 89 ee             	mov    %rbp,%rsi
  40222e:	44 89 e7             	mov    %r12d,%edi
  402231:	e8 ba ea ff ff       	callq  400cf0 <write@plt>
  402236:	48 85 c0             	test   %rax,%rax
  402239:	7f 0f                	jg     40224a <rio_writen+0x3a>
  40223b:	e8 60 ea ff ff       	callq  400ca0 <__errno_location@plt>
  402240:	83 38 04             	cmpl   $0x4,(%rax)
  402243:	75 15                	jne    40225a <rio_writen+0x4a>
  402245:	b8 00 00 00 00       	mov    $0x0,%eax
  40224a:	48 29 c3             	sub    %rax,%rbx
  40224d:	48 01 c5             	add    %rax,%rbp
  402250:	48 85 db             	test   %rbx,%rbx
  402253:	75 d3                	jne    402228 <rio_writen+0x18>
  402255:	4c 89 e8             	mov    %r13,%rax
  402258:	eb 07                	jmp    402261 <rio_writen+0x51>
  40225a:	48 c7 c0 ff ff ff ff 	mov    $0xffffffffffffffff,%rax
  402261:	48 83 c4 08          	add    $0x8,%rsp
  402265:	5b                   	pop    %rbx
  402266:	5d                   	pop    %rbp
  402267:	41 5c                	pop    %r12
  402269:	41 5d                	pop    %r13
  40226b:	c3                   	retq   

000000000040226c <rio_read>:
  40226c:	41 55                	push   %r13
  40226e:	41 54                	push   %r12
  402270:	55                   	push   %rbp
  402271:	53                   	push   %rbx
  402272:	48 83 ec 08          	sub    $0x8,%rsp
  402276:	48 89 fb             	mov    %rdi,%rbx
  402279:	49 89 f5             	mov    %rsi,%r13
  40227c:	49 89 d4             	mov    %rdx,%r12
  40227f:	eb 2e                	jmp    4022af <rio_read+0x43>
  402281:	48 8d 6b 10          	lea    0x10(%rbx),%rbp
  402285:	8b 3b                	mov    (%rbx),%edi
  402287:	ba 00 20 00 00       	mov    $0x2000,%edx
  40228c:	48 89 ee             	mov    %rbp,%rsi
  40228f:	e8 bc ea ff ff       	callq  400d50 <read@plt>
  402294:	89 43 04             	mov    %eax,0x4(%rbx)
  402297:	85 c0                	test   %eax,%eax
  402299:	79 0c                	jns    4022a7 <rio_read+0x3b>
  40229b:	e8 00 ea ff ff       	callq  400ca0 <__errno_location@plt>
  4022a0:	83 38 04             	cmpl   $0x4,(%rax)
  4022a3:	74 0a                	je     4022af <rio_read+0x43>
  4022a5:	eb 37                	jmp    4022de <rio_read+0x72>
  4022a7:	85 c0                	test   %eax,%eax
  4022a9:	74 3c                	je     4022e7 <rio_read+0x7b>
  4022ab:	48 89 6b 08          	mov    %rbp,0x8(%rbx)
  4022af:	8b 6b 04             	mov    0x4(%rbx),%ebp
  4022b2:	85 ed                	test   %ebp,%ebp
  4022b4:	7e cb                	jle    402281 <rio_read+0x15>
  4022b6:	89 e8                	mov    %ebp,%eax
  4022b8:	49 39 c4             	cmp    %rax,%r12
  4022bb:	77 03                	ja     4022c0 <rio_read+0x54>
  4022bd:	44 89 e5             	mov    %r12d,%ebp
  4022c0:	4c 63 e5             	movslq %ebp,%r12
  4022c3:	48 8b 73 08          	mov    0x8(%rbx),%rsi
  4022c7:	4c 89 e2             	mov    %r12,%rdx
  4022ca:	4c 89 ef             	mov    %r13,%rdi
  4022cd:	e8 ee ea ff ff       	callq  400dc0 <memcpy@plt>
  4022d2:	4c 01 63 08          	add    %r12,0x8(%rbx)
  4022d6:	29 6b 04             	sub    %ebp,0x4(%rbx)
  4022d9:	4c 89 e0             	mov    %r12,%rax
  4022dc:	eb 0e                	jmp    4022ec <rio_read+0x80>
  4022de:	48 c7 c0 ff ff ff ff 	mov    $0xffffffffffffffff,%rax
  4022e5:	eb 05                	jmp    4022ec <rio_read+0x80>
  4022e7:	b8 00 00 00 00       	mov    $0x0,%eax
  4022ec:	48 83 c4 08          	add    $0x8,%rsp
  4022f0:	5b                   	pop    %rbx
  4022f1:	5d                   	pop    %rbp
  4022f2:	41 5c                	pop    %r12
  4022f4:	41 5d                	pop    %r13
  4022f6:	c3                   	retq   

00000000004022f7 <rio_readlineb>:
  4022f7:	41 55                	push   %r13
  4022f9:	41 54                	push   %r12
  4022fb:	55                   	push   %rbp
  4022fc:	53                   	push   %rbx
  4022fd:	48 83 ec 18          	sub    $0x18,%rsp
  402301:	49 89 fd             	mov    %rdi,%r13
  402304:	48 89 f5             	mov    %rsi,%rbp
  402307:	49 89 d4             	mov    %rdx,%r12
  40230a:	bb 01 00 00 00       	mov    $0x1,%ebx
  40230f:	eb 3f                	jmp    402350 <rio_readlineb+0x59>
  402311:	ba 01 00 00 00       	mov    $0x1,%edx
  402316:	48 8d 74 24 0f       	lea    0xf(%rsp),%rsi
  40231b:	4c 89 ef             	mov    %r13,%rdi
  40231e:	e8 49 ff ff ff       	callq  40226c <rio_read>
  402323:	83 f8 01             	cmp    $0x1,%eax
  402326:	75 15                	jne    40233d <rio_readlineb+0x46>
  402328:	48 8d 45 01          	lea    0x1(%rbp),%rax
  40232c:	0f b6 54 24 0f       	movzbl 0xf(%rsp),%edx
  402331:	88 55 00             	mov    %dl,0x0(%rbp)
  402334:	80 7c 24 0f 0a       	cmpb   $0xa,0xf(%rsp)
  402339:	75 0e                	jne    402349 <rio_readlineb+0x52>
  40233b:	eb 1a                	jmp    402357 <rio_readlineb+0x60>
  40233d:	85 c0                	test   %eax,%eax
  40233f:	75 22                	jne    402363 <rio_readlineb+0x6c>
  402341:	48 83 fb 01          	cmp    $0x1,%rbx
  402345:	75 13                	jne    40235a <rio_readlineb+0x63>
  402347:	eb 23                	jmp    40236c <rio_readlineb+0x75>
  402349:	48 83 c3 01          	add    $0x1,%rbx
  40234d:	48 89 c5             	mov    %rax,%rbp
  402350:	4c 39 e3             	cmp    %r12,%rbx
  402353:	72 bc                	jb     402311 <rio_readlineb+0x1a>
  402355:	eb 03                	jmp    40235a <rio_readlineb+0x63>
  402357:	48 89 c5             	mov    %rax,%rbp
  40235a:	c6 45 00 00          	movb   $0x0,0x0(%rbp)
  40235e:	48 89 d8             	mov    %rbx,%rax
  402361:	eb 0e                	jmp    402371 <rio_readlineb+0x7a>
  402363:	48 c7 c0 ff ff ff ff 	mov    $0xffffffffffffffff,%rax
  40236a:	eb 05                	jmp    402371 <rio_readlineb+0x7a>
  40236c:	b8 00 00 00 00       	mov    $0x0,%eax
  402371:	48 83 c4 18          	add    $0x18,%rsp
  402375:	5b                   	pop    %rbx
  402376:	5d                   	pop    %rbp
  402377:	41 5c                	pop    %r12
  402379:	41 5d                	pop    %r13
  40237b:	c3                   	retq   

000000000040237c <urlencode>:
  40237c:	41 54                	push   %r12
  40237e:	55                   	push   %rbp
  40237f:	53                   	push   %rbx
  402380:	48 83 ec 10          	sub    $0x10,%rsp
  402384:	48 89 fb             	mov    %rdi,%rbx
  402387:	48 89 f5             	mov    %rsi,%rbp
  40238a:	64 48 8b 04 25 28 00 	mov    %fs:0x28,%rax
  402391:	00 00 
  402393:	48 89 44 24 08       	mov    %rax,0x8(%rsp)
  402398:	31 c0                	xor    %eax,%eax
  40239a:	48 c7 c1 ff ff ff ff 	mov    $0xffffffffffffffff,%rcx
  4023a1:	f2 ae                	repnz scas %es:(%rdi),%al
  4023a3:	48 f7 d1             	not    %rcx
  4023a6:	8d 41 ff             	lea    -0x1(%rcx),%eax
  4023a9:	e9 aa 00 00 00       	jmpq   402458 <urlencode+0xdc>
  4023ae:	44 0f b6 03          	movzbl (%rbx),%r8d
  4023b2:	41 80 f8 2a          	cmp    $0x2a,%r8b
  4023b6:	0f 94 c2             	sete   %dl
  4023b9:	41 80 f8 2d          	cmp    $0x2d,%r8b
  4023bd:	0f 94 c0             	sete   %al
  4023c0:	08 c2                	or     %al,%dl
  4023c2:	75 24                	jne    4023e8 <urlencode+0x6c>
  4023c4:	41 80 f8 2e          	cmp    $0x2e,%r8b
  4023c8:	74 1e                	je     4023e8 <urlencode+0x6c>
  4023ca:	41 80 f8 5f          	cmp    $0x5f,%r8b
  4023ce:	74 18                	je     4023e8 <urlencode+0x6c>
  4023d0:	41 8d 40 d0          	lea    -0x30(%r8),%eax
  4023d4:	3c 09                	cmp    $0x9,%al
  4023d6:	76 10                	jbe    4023e8 <urlencode+0x6c>
  4023d8:	41 8d 40 bf          	lea    -0x41(%r8),%eax
  4023dc:	3c 19                	cmp    $0x19,%al
  4023de:	76 08                	jbe    4023e8 <urlencode+0x6c>
  4023e0:	41 8d 40 9f          	lea    -0x61(%r8),%eax
  4023e4:	3c 19                	cmp    $0x19,%al
  4023e6:	77 0a                	ja     4023f2 <urlencode+0x76>
  4023e8:	44 88 45 00          	mov    %r8b,0x0(%rbp)
  4023ec:	48 8d 6d 01          	lea    0x1(%rbp),%rbp
  4023f0:	eb 5f                	jmp    402451 <urlencode+0xd5>
  4023f2:	41 80 f8 20          	cmp    $0x20,%r8b
  4023f6:	75 0a                	jne    402402 <urlencode+0x86>
  4023f8:	c6 45 00 2b          	movb   $0x2b,0x0(%rbp)
  4023fc:	48 8d 6d 01          	lea    0x1(%rbp),%rbp
  402400:	eb 4f                	jmp    402451 <urlencode+0xd5>
  402402:	41 8d 40 e0          	lea    -0x20(%r8),%eax
  402406:	3c 5f                	cmp    $0x5f,%al
  402408:	0f 96 c2             	setbe  %dl
  40240b:	41 80 f8 09          	cmp    $0x9,%r8b
  40240f:	0f 94 c0             	sete   %al
  402412:	08 c2                	or     %al,%dl
  402414:	74 50                	je     402466 <urlencode+0xea>
  402416:	45 0f b6 c0          	movzbl %r8b,%r8d
  40241a:	b9 28 37 40 00       	mov    $0x403728,%ecx
  40241f:	ba 08 00 00 00       	mov    $0x8,%edx
  402424:	be 01 00 00 00       	mov    $0x1,%esi
  402429:	48 89 e7             	mov    %rsp,%rdi
  40242c:	b8 00 00 00 00       	mov    $0x0,%eax
  402431:	e8 6a ea ff ff       	callq  400ea0 <__sprintf_chk@plt>
  402436:	0f b6 04 24          	movzbl (%rsp),%eax
  40243a:	88 45 00             	mov    %al,0x0(%rbp)
  40243d:	0f b6 44 24 01       	movzbl 0x1(%rsp),%eax
  402442:	88 45 01             	mov    %al,0x1(%rbp)
  402445:	0f b6 44 24 02       	movzbl 0x2(%rsp),%eax
  40244a:	88 45 02             	mov    %al,0x2(%rbp)
  40244d:	48 8d 6d 03          	lea    0x3(%rbp),%rbp
  402451:	48 83 c3 01          	add    $0x1,%rbx
  402455:	44 89 e0             	mov    %r12d,%eax
  402458:	44 8d 60 ff          	lea    -0x1(%rax),%r12d
  40245c:	85 c0                	test   %eax,%eax
  40245e:	0f 85 4a ff ff ff    	jne    4023ae <urlencode+0x32>
  402464:	eb 05                	jmp    40246b <urlencode+0xef>
  402466:	b8 ff ff ff ff       	mov    $0xffffffff,%eax
  40246b:	48 8b 74 24 08       	mov    0x8(%rsp),%rsi
  402470:	64 48 33 34 25 28 00 	xor    %fs:0x28,%rsi
  402477:	00 00 
  402479:	74 05                	je     402480 <urlencode+0x104>
  40247b:	e8 80 e8 ff ff       	callq  400d00 <__stack_chk_fail@plt>
  402480:	48 83 c4 10          	add    $0x10,%rsp
  402484:	5b                   	pop    %rbx
  402485:	5d                   	pop    %rbp
  402486:	41 5c                	pop    %r12
  402488:	c3                   	retq   

0000000000402489 <submitr>:
  402489:	41 57                	push   %r15
  40248b:	41 56                	push   %r14
  40248d:	41 55                	push   %r13
  40248f:	41 54                	push   %r12
  402491:	55                   	push   %rbp
  402492:	53                   	push   %rbx
  402493:	48 81 ec 58 a0 00 00 	sub    $0xa058,%rsp
  40249a:	49 89 fc             	mov    %rdi,%r12
  40249d:	89 74 24 04          	mov    %esi,0x4(%rsp)
  4024a1:	49 89 d7             	mov    %rdx,%r15
  4024a4:	49 89 ce             	mov    %rcx,%r14
  4024a7:	4c 89 44 24 08       	mov    %r8,0x8(%rsp)
  4024ac:	4d 89 cd             	mov    %r9,%r13
  4024af:	48 8b 9c 24 90 a0 00 	mov    0xa090(%rsp),%rbx
  4024b6:	00 
  4024b7:	64 48 8b 04 25 28 00 	mov    %fs:0x28,%rax
  4024be:	00 00 
  4024c0:	48 89 84 24 48 a0 00 	mov    %rax,0xa048(%rsp)
  4024c7:	00 
  4024c8:	31 c0                	xor    %eax,%eax
  4024ca:	c7 44 24 1c 00 00 00 	movl   $0x0,0x1c(%rsp)
  4024d1:	00 
  4024d2:	ba 00 00 00 00       	mov    $0x0,%edx
  4024d7:	be 01 00 00 00       	mov    $0x1,%esi
  4024dc:	bf 02 00 00 00       	mov    $0x2,%edi
  4024e1:	e8 ca e9 ff ff       	callq  400eb0 <socket@plt>
  4024e6:	85 c0                	test   %eax,%eax
  4024e8:	79 4e                	jns    402538 <submitr+0xaf>
  4024ea:	48 b8 45 72 72 6f 72 	movabs $0x43203a726f727245,%rax
  4024f1:	3a 20 43 
  4024f4:	48 89 03             	mov    %rax,(%rbx)
  4024f7:	48 b8 6c 69 65 6e 74 	movabs $0x6e7520746e65696c,%rax
  4024fe:	20 75 6e 
  402501:	48 89 43 08          	mov    %rax,0x8(%rbx)
  402505:	48 b8 61 62 6c 65 20 	movabs $0x206f7420656c6261,%rax
  40250c:	74 6f 20 
  40250f:	48 89 43 10          	mov    %rax,0x10(%rbx)
  402513:	48 b8 63 72 65 61 74 	movabs $0x7320657461657263,%rax
  40251a:	65 20 73 
  40251d:	48 89 43 18          	mov    %rax,0x18(%rbx)
  402521:	c7 43 20 6f 63 6b 65 	movl   $0x656b636f,0x20(%rbx)
  402528:	66 c7 43 24 74 00    	movw   $0x74,0x24(%rbx)
  40252e:	b8 ff ff ff ff       	mov    $0xffffffff,%eax
  402533:	e9 88 06 00 00       	jmpq   402bc0 <submitr+0x737>
  402538:	89 c5                	mov    %eax,%ebp
  40253a:	4c 89 e7             	mov    %r12,%rdi
  40253d:	e8 3e e8 ff ff       	callq  400d80 <gethostbyname@plt>
  402542:	48 85 c0             	test   %rax,%rax
  402545:	75 67                	jne    4025ae <submitr+0x125>
  402547:	48 b8 45 72 72 6f 72 	movabs $0x44203a726f727245,%rax
  40254e:	3a 20 44 
  402551:	48 89 03             	mov    %rax,(%rbx)
  402554:	48 b8 4e 53 20 69 73 	movabs $0x6e7520736920534e,%rax
  40255b:	20 75 6e 
  40255e:	48 89 43 08          	mov    %rax,0x8(%rbx)
  402562:	48 b8 61 62 6c 65 20 	movabs $0x206f7420656c6261,%rax
  402569:	74 6f 20 
  40256c:	48 89 43 10          	mov    %rax,0x10(%rbx)
  402570:	48 b8 72 65 73 6f 6c 	movabs $0x2065766c6f736572,%rax
  402577:	76 65 20 
  40257a:	48 89 43 18          	mov    %rax,0x18(%rbx)
  40257e:	48 b8 73 65 72 76 65 	movabs $0x6120726576726573,%rax
  402585:	72 20 61 
  402588:	48 89 43 20          	mov    %rax,0x20(%rbx)
  40258c:	c7 43 28 64 64 72 65 	movl   $0x65726464,0x28(%rbx)
  402593:	66 c7 43 2c 73 73    	movw   $0x7373,0x2c(%rbx)
  402599:	c6 43 2e 00          	movb   $0x0,0x2e(%rbx)
  40259d:	89 ef                	mov    %ebp,%edi
  40259f:	e8 9c e7 ff ff       	callq  400d40 <close@plt>
  4025a4:	b8 ff ff ff ff       	mov    $0xffffffff,%eax
  4025a9:	e9 12 06 00 00       	jmpq   402bc0 <submitr+0x737>
  4025ae:	48 c7 44 24 20 00 00 	movq   $0x0,0x20(%rsp)
  4025b5:	00 00 
  4025b7:	48 c7 44 24 28 00 00 	movq   $0x0,0x28(%rsp)
  4025be:	00 00 
  4025c0:	66 c7 44 24 20 02 00 	movw   $0x2,0x20(%rsp)
  4025c7:	48 63 50 14          	movslq 0x14(%rax),%rdx
  4025cb:	48 8b 40 18          	mov    0x18(%rax),%rax
  4025cf:	48 8b 30             	mov    (%rax),%rsi
  4025d2:	48 8d 7c 24 24       	lea    0x24(%rsp),%rdi
  4025d7:	b9 0c 00 00 00       	mov    $0xc,%ecx
  4025dc:	e8 af e7 ff ff       	callq  400d90 <__memmove_chk@plt>
  4025e1:	0f b7 44 24 04       	movzwl 0x4(%rsp),%eax
  4025e6:	66 c1 c8 08          	ror    $0x8,%ax
  4025ea:	66 89 44 24 22       	mov    %ax,0x22(%rsp)
  4025ef:	ba 10 00 00 00       	mov    $0x10,%edx
  4025f4:	48 8d 74 24 20       	lea    0x20(%rsp),%rsi
  4025f9:	89 ef                	mov    %ebp,%edi
  4025fb:	e8 80 e8 ff ff       	callq  400e80 <connect@plt>
  402600:	85 c0                	test   %eax,%eax
  402602:	79 59                	jns    40265d <submitr+0x1d4>
  402604:	48 b8 45 72 72 6f 72 	movabs $0x55203a726f727245,%rax
  40260b:	3a 20 55 
  40260e:	48 89 03             	mov    %rax,(%rbx)
  402611:	48 b8 6e 61 62 6c 65 	movabs $0x6f7420656c62616e,%rax
  402618:	20 74 6f 
  40261b:	48 89 43 08          	mov    %rax,0x8(%rbx)
  40261f:	48 b8 20 63 6f 6e 6e 	movabs $0x7463656e6e6f6320,%rax
  402626:	65 63 74 
  402629:	48 89 43 10          	mov    %rax,0x10(%rbx)
  40262d:	48 b8 20 74 6f 20 74 	movabs $0x20656874206f7420,%rax
  402634:	68 65 20 
  402637:	48 89 43 18          	mov    %rax,0x18(%rbx)
  40263b:	c7 43 20 73 65 72 76 	movl   $0x76726573,0x20(%rbx)
  402642:	66 c7 43 24 65 72    	movw   $0x7265,0x24(%rbx)
  402648:	c6 43 26 00          	movb   $0x0,0x26(%rbx)
  40264c:	89 ef                	mov    %ebp,%edi
  40264e:	e8 ed e6 ff ff       	callq  400d40 <close@plt>
  402653:	b8 ff ff ff ff       	mov    $0xffffffff,%eax
  402658:	e9 63 05 00 00       	jmpq   402bc0 <submitr+0x737>
  40265d:	48 c7 c6 ff ff ff ff 	mov    $0xffffffffffffffff,%rsi
  402664:	b8 00 00 00 00       	mov    $0x0,%eax
  402669:	48 89 f1             	mov    %rsi,%rcx
  40266c:	4c 89 ef             	mov    %r13,%rdi
  40266f:	f2 ae                	repnz scas %es:(%rdi),%al
  402671:	48 f7 d1             	not    %rcx
  402674:	48 89 ca             	mov    %rcx,%rdx
  402677:	48 89 f1             	mov    %rsi,%rcx
  40267a:	4c 89 ff             	mov    %r15,%rdi
  40267d:	f2 ae                	repnz scas %es:(%rdi),%al
  40267f:	48 f7 d1             	not    %rcx
  402682:	49 89 c8             	mov    %rcx,%r8
  402685:	48 89 f1             	mov    %rsi,%rcx
  402688:	4c 89 f7             	mov    %r14,%rdi
  40268b:	f2 ae                	repnz scas %es:(%rdi),%al
  40268d:	48 f7 d1             	not    %rcx
  402690:	4d 8d 44 08 fe       	lea    -0x2(%r8,%rcx,1),%r8
  402695:	48 89 f1             	mov    %rsi,%rcx
  402698:	48 8b 7c 24 08       	mov    0x8(%rsp),%rdi
  40269d:	f2 ae                	repnz scas %es:(%rdi),%al
  40269f:	48 89 c8             	mov    %rcx,%rax
  4026a2:	48 f7 d0             	not    %rax
  4026a5:	49 8d 4c 00 ff       	lea    -0x1(%r8,%rax,1),%rcx
  4026aa:	48 8d 44 52 fd       	lea    -0x3(%rdx,%rdx,2),%rax
  4026af:	48 8d 84 01 80 00 00 	lea    0x80(%rcx,%rax,1),%rax
  4026b6:	00 
  4026b7:	48 3d 00 20 00 00    	cmp    $0x2000,%rax
  4026bd:	76 72                	jbe    402731 <submitr+0x2a8>
  4026bf:	48 b8 45 72 72 6f 72 	movabs $0x52203a726f727245,%rax
  4026c6:	3a 20 52 
  4026c9:	48 89 03             	mov    %rax,(%rbx)
  4026cc:	48 b8 65 73 75 6c 74 	movabs $0x747320746c757365,%rax
  4026d3:	20 73 74 
  4026d6:	48 89 43 08          	mov    %rax,0x8(%rbx)
  4026da:	48 b8 72 69 6e 67 20 	movabs $0x6f6f7420676e6972,%rax
  4026e1:	74 6f 6f 
  4026e4:	48 89 43 10          	mov    %rax,0x10(%rbx)
  4026e8:	48 b8 20 6c 61 72 67 	movabs $0x202e656772616c20,%rax
  4026ef:	65 2e 20 
  4026f2:	48 89 43 18          	mov    %rax,0x18(%rbx)
  4026f6:	48 b8 49 6e 63 72 65 	movabs $0x6573616572636e49,%rax
  4026fd:	61 73 65 
  402700:	48 89 43 20          	mov    %rax,0x20(%rbx)
  402704:	48 b8 20 53 55 42 4d 	movabs $0x5254494d42555320,%rax
  40270b:	49 54 52 
  40270e:	48 89 43 28          	mov    %rax,0x28(%rbx)
  402712:	48 b8 5f 4d 41 58 42 	movabs $0x46554258414d5f,%rax
  402719:	55 46 00 
  40271c:	48 89 43 30          	mov    %rax,0x30(%rbx)
  402720:	89 ef                	mov    %ebp,%edi
  402722:	e8 19 e6 ff ff       	callq  400d40 <close@plt>
  402727:	b8 ff ff ff ff       	mov    $0xffffffff,%eax
  40272c:	e9 8f 04 00 00       	jmpq   402bc0 <submitr+0x737>
  402731:	48 8d b4 24 30 20 00 	lea    0x2030(%rsp),%rsi
  402738:	00 
  402739:	b9 00 04 00 00       	mov    $0x400,%ecx
  40273e:	b8 00 00 00 00       	mov    $0x0,%eax
  402743:	48 89 f7             	mov    %rsi,%rdi
  402746:	f3 48 ab             	rep stos %rax,%es:(%rdi)
  402749:	4c 89 ef             	mov    %r13,%rdi
  40274c:	e8 2b fc ff ff       	callq  40237c <urlencode>
  402751:	85 c0                	test   %eax,%eax
  402753:	0f 89 8a 00 00 00    	jns    4027e3 <submitr+0x35a>
  402759:	48 b8 45 72 72 6f 72 	movabs $0x52203a726f727245,%rax
  402760:	3a 20 52 
  402763:	48 89 03             	mov    %rax,(%rbx)
  402766:	48 b8 65 73 75 6c 74 	movabs $0x747320746c757365,%rax
  40276d:	20 73 74 
  402770:	48 89 43 08          	mov    %rax,0x8(%rbx)
  402774:	48 b8 72 69 6e 67 20 	movabs $0x6e6f6320676e6972,%rax
  40277b:	63 6f 6e 
  40277e:	48 89 43 10          	mov    %rax,0x10(%rbx)
  402782:	48 b8 74 61 69 6e 73 	movabs $0x6e6120736e696174,%rax
  402789:	20 61 6e 
  40278c:	48 89 43 18          	mov    %rax,0x18(%rbx)
  402790:	48 b8 20 69 6c 6c 65 	movabs $0x6c6167656c6c6920,%rax
  402797:	67 61 6c 
  40279a:	48 89 43 20          	mov    %rax,0x20(%rbx)
  40279e:	48 b8 20 6f 72 20 75 	movabs $0x72706e7520726f20,%rax
  4027a5:	6e 70 72 
  4027a8:	48 89 43 28          	mov    %rax,0x28(%rbx)
  4027ac:	48 b8 69 6e 74 61 62 	movabs $0x20656c6261746e69,%rax
  4027b3:	6c 65 20 
  4027b6:	48 89 43 30          	mov    %rax,0x30(%rbx)
  4027ba:	48 b8 63 68 61 72 61 	movabs $0x6574636172616863,%rax
  4027c1:	63 74 65 
  4027c4:	48 89 43 38          	mov    %rax,0x38(%rbx)
  4027c8:	66 c7 43 40 72 2e    	movw   $0x2e72,0x40(%rbx)
  4027ce:	c6 43 42 00          	movb   $0x0,0x42(%rbx)
  4027d2:	89 ef                	mov    %ebp,%edi
  4027d4:	e8 67 e5 ff ff       	callq  400d40 <close@plt>
  4027d9:	b8 ff ff ff ff       	mov    $0xffffffff,%eax
  4027de:	e9 dd 03 00 00       	jmpq   402bc0 <submitr+0x737>
  4027e3:	4c 8d 6c 24 30       	lea    0x30(%rsp),%r13
  4027e8:	41 54                	push   %r12
  4027ea:	48 8d 84 24 38 20 00 	lea    0x2038(%rsp),%rax
  4027f1:	00 
  4027f2:	50                   	push   %rax
  4027f3:	4d 89 f9             	mov    %r15,%r9
  4027f6:	4d 89 f0             	mov    %r14,%r8
  4027f9:	b9 b8 36 40 00       	mov    $0x4036b8,%ecx
  4027fe:	ba 00 20 00 00       	mov    $0x2000,%edx
  402803:	be 01 00 00 00       	mov    $0x1,%esi
  402808:	4c 89 ef             	mov    %r13,%rdi
  40280b:	b8 00 00 00 00       	mov    $0x0,%eax
  402810:	e8 8b e6 ff ff       	callq  400ea0 <__sprintf_chk@plt>
  402815:	b8 00 00 00 00       	mov    $0x0,%eax
  40281a:	48 c7 c1 ff ff ff ff 	mov    $0xffffffffffffffff,%rcx
  402821:	4c 89 ef             	mov    %r13,%rdi
  402824:	f2 ae                	repnz scas %es:(%rdi),%al
  402826:	48 f7 d1             	not    %rcx
  402829:	48 8d 51 ff          	lea    -0x1(%rcx),%rdx
  40282d:	4c 89 ee             	mov    %r13,%rsi
  402830:	89 ef                	mov    %ebp,%edi
  402832:	e8 d9 f9 ff ff       	callq  402210 <rio_writen>
  402837:	48 83 c4 10          	add    $0x10,%rsp
  40283b:	48 85 c0             	test   %rax,%rax
  40283e:	79 6e                	jns    4028ae <submitr+0x425>
  402840:	48 b8 45 72 72 6f 72 	movabs $0x43203a726f727245,%rax
  402847:	3a 20 43 
  40284a:	48 89 03             	mov    %rax,(%rbx)
  40284d:	48 b8 6c 69 65 6e 74 	movabs $0x6e7520746e65696c,%rax
  402854:	20 75 6e 
  402857:	48 89 43 08          	mov    %rax,0x8(%rbx)
  40285b:	48 b8 61 62 6c 65 20 	movabs $0x206f7420656c6261,%rax
  402862:	74 6f 20 
  402865:	48 89 43 10          	mov    %rax,0x10(%rbx)
  402869:	48 b8 77 72 69 74 65 	movabs $0x6f74206574697277,%rax
  402870:	20 74 6f 
  402873:	48 89 43 18          	mov    %rax,0x18(%rbx)
  402877:	48 b8 20 74 68 65 20 	movabs $0x7365722065687420,%rax
  40287e:	72 65 73 
  402881:	48 89 43 20          	mov    %rax,0x20(%rbx)
  402885:	48 b8 75 6c 74 20 73 	movabs $0x7672657320746c75,%rax
  40288c:	65 72 76 
  40288f:	48 89 43 28          	mov    %rax,0x28(%rbx)
  402893:	66 c7 43 30 65 72    	movw   $0x7265,0x30(%rbx)
  402899:	c6 43 32 00          	movb   $0x0,0x32(%rbx)
  40289d:	89 ef                	mov    %ebp,%edi
  40289f:	e8 9c e4 ff ff       	callq  400d40 <close@plt>
  4028a4:	b8 ff ff ff ff       	mov    $0xffffffff,%eax
  4028a9:	e9 12 03 00 00       	jmpq   402bc0 <submitr+0x737>
  4028ae:	89 ee                	mov    %ebp,%esi
  4028b0:	48 8d bc 24 30 80 00 	lea    0x8030(%rsp),%rdi
  4028b7:	00 
  4028b8:	e8 13 f9 ff ff       	callq  4021d0 <rio_readinitb>
  4028bd:	ba 00 20 00 00       	mov    $0x2000,%edx
  4028c2:	48 8d 74 24 30       	lea    0x30(%rsp),%rsi
  4028c7:	48 8d bc 24 30 80 00 	lea    0x8030(%rsp),%rdi
  4028ce:	00 
  4028cf:	e8 23 fa ff ff       	callq  4022f7 <rio_readlineb>
  4028d4:	48 85 c0             	test   %rax,%rax
  4028d7:	7f 7d                	jg     402956 <submitr+0x4cd>
  4028d9:	48 b8 45 72 72 6f 72 	movabs $0x43203a726f727245,%rax
  4028e0:	3a 20 43 
  4028e3:	48 89 03             	mov    %rax,(%rbx)
  4028e6:	48 b8 6c 69 65 6e 74 	movabs $0x6e7520746e65696c,%rax
  4028ed:	20 75 6e 
  4028f0:	48 89 43 08          	mov    %rax,0x8(%rbx)
  4028f4:	48 b8 61 62 6c 65 20 	movabs $0x206f7420656c6261,%rax
  4028fb:	74 6f 20 
  4028fe:	48 89 43 10          	mov    %rax,0x10(%rbx)
  402902:	48 b8 72 65 61 64 20 	movabs $0x7269662064616572,%rax
  402909:	66 69 72 
  40290c:	48 89 43 18          	mov    %rax,0x18(%rbx)
  402910:	48 b8 73 74 20 68 65 	movabs $0x6564616568207473,%rax
  402917:	61 64 65 
  40291a:	48 89 43 20          	mov    %rax,0x20(%rbx)
  40291e:	48 b8 72 20 66 72 6f 	movabs $0x72206d6f72662072,%rax
  402925:	6d 20 72 
  402928:	48 89 43 28          	mov    %rax,0x28(%rbx)
  40292c:	48 b8 65 73 75 6c 74 	movabs $0x657320746c757365,%rax
  402933:	20 73 65 
  402936:	48 89 43 30          	mov    %rax,0x30(%rbx)
  40293a:	c7 43 38 72 76 65 72 	movl   $0x72657672,0x38(%rbx)
  402941:	c6 43 3c 00          	movb   $0x0,0x3c(%rbx)
  402945:	89 ef                	mov    %ebp,%edi
  402947:	e8 f4 e3 ff ff       	callq  400d40 <close@plt>
  40294c:	b8 ff ff ff ff       	mov    $0xffffffff,%eax
  402951:	e9 6a 02 00 00       	jmpq   402bc0 <submitr+0x737>
  402956:	4c 8d 84 24 30 60 00 	lea    0x6030(%rsp),%r8
  40295d:	00 
  40295e:	48 8d 4c 24 1c       	lea    0x1c(%rsp),%rcx
  402963:	48 8d 94 24 30 40 00 	lea    0x4030(%rsp),%rdx
  40296a:	00 
  40296b:	be 2f 37 40 00       	mov    $0x40372f,%esi
  402970:	48 8d 7c 24 30       	lea    0x30(%rsp),%rdi
  402975:	b8 00 00 00 00       	mov    $0x0,%eax
  40297a:	e8 81 e4 ff ff       	callq  400e00 <__isoc99_sscanf@plt>
  40297f:	e9 95 00 00 00       	jmpq   402a19 <submitr+0x590>
  402984:	ba 00 20 00 00       	mov    $0x2000,%edx
  402989:	48 8d 74 24 30       	lea    0x30(%rsp),%rsi
  40298e:	48 8d bc 24 30 80 00 	lea    0x8030(%rsp),%rdi
  402995:	00 
  402996:	e8 5c f9 ff ff       	callq  4022f7 <rio_readlineb>
  40299b:	48 85 c0             	test   %rax,%rax
  40299e:	7f 79                	jg     402a19 <submitr+0x590>
  4029a0:	48 b8 45 72 72 6f 72 	movabs $0x43203a726f727245,%rax
  4029a7:	3a 20 43 
  4029aa:	48 89 03             	mov    %rax,(%rbx)
  4029ad:	48 b8 6c 69 65 6e 74 	movabs $0x6e7520746e65696c,%rax
  4029b4:	20 75 6e 
  4029b7:	48 89 43 08          	mov    %rax,0x8(%rbx)
  4029bb:	48 b8 61 62 6c 65 20 	movabs $0x206f7420656c6261,%rax
  4029c2:	74 6f 20 
  4029c5:	48 89 43 10          	mov    %rax,0x10(%rbx)
  4029c9:	48 b8 72 65 61 64 20 	movabs $0x6165682064616572,%rax
  4029d0:	68 65 61 
  4029d3:	48 89 43 18          	mov    %rax,0x18(%rbx)
  4029d7:	48 b8 64 65 72 73 20 	movabs $0x6f72662073726564,%rax
  4029de:	66 72 6f 
  4029e1:	48 89 43 20          	mov    %rax,0x20(%rbx)
  4029e5:	48 b8 6d 20 74 68 65 	movabs $0x657220656874206d,%rax
  4029ec:	20 72 65 
  4029ef:	48 89 43 28          	mov    %rax,0x28(%rbx)
  4029f3:	48 b8 73 75 6c 74 20 	movabs $0x72657320746c7573,%rax
  4029fa:	73 65 72 
  4029fd:	48 89 43 30          	mov    %rax,0x30(%rbx)
  402a01:	c7 43 38 76 65 72 00 	movl   $0x726576,0x38(%rbx)
  402a08:	89 ef                	mov    %ebp,%edi
  402a0a:	e8 31 e3 ff ff       	callq  400d40 <close@plt>
  402a0f:	b8 ff ff ff ff       	mov    $0xffffffff,%eax
  402a14:	e9 a7 01 00 00       	jmpq   402bc0 <submitr+0x737>
  402a19:	0f b6 54 24 30       	movzbl 0x30(%rsp),%edx
  402a1e:	b8 0d 00 00 00       	mov    $0xd,%eax
  402a23:	29 d0                	sub    %edx,%eax
  402a25:	75 15                	jne    402a3c <submitr+0x5b3>
  402a27:	0f b6 54 24 31       	movzbl 0x31(%rsp),%edx
  402a2c:	b8 0a 00 00 00       	mov    $0xa,%eax
  402a31:	29 d0                	sub    %edx,%eax
  402a33:	75 07                	jne    402a3c <submitr+0x5b3>
  402a35:	0f b6 44 24 32       	movzbl 0x32(%rsp),%eax
  402a3a:	f7 d8                	neg    %eax
  402a3c:	85 c0                	test   %eax,%eax
  402a3e:	0f 85 40 ff ff ff    	jne    402984 <submitr+0x4fb>
  402a44:	ba 00 20 00 00       	mov    $0x2000,%edx
  402a49:	48 8d 74 24 30       	lea    0x30(%rsp),%rsi
  402a4e:	48 8d bc 24 30 80 00 	lea    0x8030(%rsp),%rdi
  402a55:	00 
  402a56:	e8 9c f8 ff ff       	callq  4022f7 <rio_readlineb>
  402a5b:	48 85 c0             	test   %rax,%rax
  402a5e:	0f 8f 83 00 00 00    	jg     402ae7 <submitr+0x65e>
  402a64:	48 b8 45 72 72 6f 72 	movabs $0x43203a726f727245,%rax
  402a6b:	3a 20 43 
  402a6e:	48 89 03             	mov    %rax,(%rbx)
  402a71:	48 b8 6c 69 65 6e 74 	movabs $0x6e7520746e65696c,%rax
  402a78:	20 75 6e 
  402a7b:	48 89 43 08          	mov    %rax,0x8(%rbx)
  402a7f:	48 b8 61 62 6c 65 20 	movabs $0x206f7420656c6261,%rax
  402a86:	74 6f 20 
  402a89:	48 89 43 10          	mov    %rax,0x10(%rbx)
  402a8d:	48 b8 72 65 61 64 20 	movabs $0x6174732064616572,%rax
  402a94:	73 74 61 
  402a97:	48 89 43 18          	mov    %rax,0x18(%rbx)
  402a9b:	48 b8 74 75 73 20 6d 	movabs $0x7373656d20737574,%rax
  402aa2:	65 73 73 
  402aa5:	48 89 43 20          	mov    %rax,0x20(%rbx)
  402aa9:	48 b8 61 67 65 20 66 	movabs $0x6d6f726620656761,%rax
  402ab0:	72 6f 6d 
  402ab3:	48 89 43 28          	mov    %rax,0x28(%rbx)
  402ab7:	48 b8 20 72 65 73 75 	movabs $0x20746c7573657220,%rax
  402abe:	6c 74 20 
  402ac1:	48 89 43 30          	mov    %rax,0x30(%rbx)
  402ac5:	c7 43 38 73 65 72 76 	movl   $0x76726573,0x38(%rbx)
  402acc:	66 c7 43 3c 65 72    	movw   $0x7265,0x3c(%rbx)
  402ad2:	c6 43 3e 00          	movb   $0x0,0x3e(%rbx)
  402ad6:	89 ef                	mov    %ebp,%edi
  402ad8:	e8 63 e2 ff ff       	callq  400d40 <close@plt>
  402add:	b8 ff ff ff ff       	mov    $0xffffffff,%eax
  402ae2:	e9 d9 00 00 00       	jmpq   402bc0 <submitr+0x737>
  402ae7:	44 8b 44 24 1c       	mov    0x1c(%rsp),%r8d
  402aec:	41 81 f8 c8 00 00 00 	cmp    $0xc8,%r8d
  402af3:	74 37                	je     402b2c <submitr+0x6a3>
  402af5:	4c 8d 8c 24 30 60 00 	lea    0x6030(%rsp),%r9
  402afc:	00 
  402afd:	b9 f8 36 40 00       	mov    $0x4036f8,%ecx
  402b02:	48 c7 c2 ff ff ff ff 	mov    $0xffffffffffffffff,%rdx
  402b09:	be 01 00 00 00       	mov    $0x1,%esi
  402b0e:	48 89 df             	mov    %rbx,%rdi
  402b11:	b8 00 00 00 00       	mov    $0x0,%eax
  402b16:	e8 85 e3 ff ff       	callq  400ea0 <__sprintf_chk@plt>
  402b1b:	89 ef                	mov    %ebp,%edi
  402b1d:	e8 1e e2 ff ff       	callq  400d40 <close@plt>
  402b22:	b8 ff ff ff ff       	mov    $0xffffffff,%eax
  402b27:	e9 94 00 00 00       	jmpq   402bc0 <submitr+0x737>
  402b2c:	48 8d 74 24 30       	lea    0x30(%rsp),%rsi
  402b31:	48 89 df             	mov    %rbx,%rdi
  402b34:	e8 97 e1 ff ff       	callq  400cd0 <strcpy@plt>
  402b39:	89 ef                	mov    %ebp,%edi
  402b3b:	e8 00 e2 ff ff       	callq  400d40 <close@plt>
  402b40:	0f b6 03             	movzbl (%rbx),%eax
  402b43:	ba 4f 00 00 00       	mov    $0x4f,%edx
  402b48:	29 c2                	sub    %eax,%edx
  402b4a:	75 22                	jne    402b6e <submitr+0x6e5>
  402b4c:	0f b6 4b 01          	movzbl 0x1(%rbx),%ecx
  402b50:	b8 4b 00 00 00       	mov    $0x4b,%eax
  402b55:	29 c8                	sub    %ecx,%eax
  402b57:	75 17                	jne    402b70 <submitr+0x6e7>
  402b59:	0f b6 4b 02          	movzbl 0x2(%rbx),%ecx
  402b5d:	b8 0a 00 00 00       	mov    $0xa,%eax
  402b62:	29 c8                	sub    %ecx,%eax
  402b64:	75 0a                	jne    402b70 <submitr+0x6e7>
  402b66:	0f b6 43 03          	movzbl 0x3(%rbx),%eax
  402b6a:	f7 d8                	neg    %eax
  402b6c:	eb 02                	jmp    402b70 <submitr+0x6e7>
  402b6e:	89 d0                	mov    %edx,%eax
  402b70:	85 c0                	test   %eax,%eax
  402b72:	74 40                	je     402bb4 <submitr+0x72b>
  402b74:	bf 40 37 40 00       	mov    $0x403740,%edi
  402b79:	b9 05 00 00 00       	mov    $0x5,%ecx
  402b7e:	48 89 de             	mov    %rbx,%rsi
  402b81:	f3 a6                	repz cmpsb %es:(%rdi),%ds:(%rsi)
  402b83:	0f 97 c0             	seta   %al
  402b86:	0f 92 c1             	setb   %cl
  402b89:	29 c8                	sub    %ecx,%eax
  402b8b:	0f be c0             	movsbl %al,%eax
  402b8e:	85 c0                	test   %eax,%eax
  402b90:	74 2e                	je     402bc0 <submitr+0x737>
  402b92:	85 d2                	test   %edx,%edx
  402b94:	75 13                	jne    402ba9 <submitr+0x720>
  402b96:	0f b6 43 01          	movzbl 0x1(%rbx),%eax
  402b9a:	ba 4b 00 00 00       	mov    $0x4b,%edx
  402b9f:	29 c2                	sub    %eax,%edx
  402ba1:	75 06                	jne    402ba9 <submitr+0x720>
  402ba3:	0f b6 53 02          	movzbl 0x2(%rbx),%edx
  402ba7:	f7 da                	neg    %edx
  402ba9:	85 d2                	test   %edx,%edx
  402bab:	75 0e                	jne    402bbb <submitr+0x732>
  402bad:	b8 00 00 00 00       	mov    $0x0,%eax
  402bb2:	eb 0c                	jmp    402bc0 <submitr+0x737>
  402bb4:	b8 00 00 00 00       	mov    $0x0,%eax
  402bb9:	eb 05                	jmp    402bc0 <submitr+0x737>
  402bbb:	b8 ff ff ff ff       	mov    $0xffffffff,%eax
  402bc0:	48 8b 9c 24 48 a0 00 	mov    0xa048(%rsp),%rbx
  402bc7:	00 
  402bc8:	64 48 33 1c 25 28 00 	xor    %fs:0x28,%rbx
  402bcf:	00 00 
  402bd1:	74 05                	je     402bd8 <submitr+0x74f>
  402bd3:	e8 28 e1 ff ff       	callq  400d00 <__stack_chk_fail@plt>
  402bd8:	48 81 c4 58 a0 00 00 	add    $0xa058,%rsp
  402bdf:	5b                   	pop    %rbx
  402be0:	5d                   	pop    %rbp
  402be1:	41 5c                	pop    %r12
  402be3:	41 5d                	pop    %r13
  402be5:	41 5e                	pop    %r14
  402be7:	41 5f                	pop    %r15
  402be9:	c3                   	retq   

0000000000402bea <init_timeout>:
  402bea:	85 ff                	test   %edi,%edi
  402bec:	74 23                	je     402c11 <init_timeout+0x27>
  402bee:	53                   	push   %rbx
  402bef:	89 fb                	mov    %edi,%ebx
  402bf1:	85 ff                	test   %edi,%edi
  402bf3:	79 05                	jns    402bfa <init_timeout+0x10>
  402bf5:	bb 00 00 00 00       	mov    $0x0,%ebx
  402bfa:	be e2 21 40 00       	mov    $0x4021e2,%esi
  402bff:	bf 0e 00 00 00       	mov    $0xe,%edi
  402c04:	e8 67 e1 ff ff       	callq  400d70 <signal@plt>
  402c09:	89 df                	mov    %ebx,%edi
  402c0b:	e8 20 e1 ff ff       	callq  400d30 <alarm@plt>
  402c10:	5b                   	pop    %rbx
  402c11:	f3 c3                	repz retq 

0000000000402c13 <init_driver>:
  402c13:	55                   	push   %rbp
  402c14:	53                   	push   %rbx
  402c15:	48 83 ec 28          	sub    $0x28,%rsp
  402c19:	48 89 fd             	mov    %rdi,%rbp
  402c1c:	64 48 8b 04 25 28 00 	mov    %fs:0x28,%rax
  402c23:	00 00 
  402c25:	48 89 44 24 18       	mov    %rax,0x18(%rsp)
  402c2a:	31 c0                	xor    %eax,%eax
  402c2c:	be 01 00 00 00       	mov    $0x1,%esi
  402c31:	bf 0d 00 00 00       	mov    $0xd,%edi
  402c36:	e8 35 e1 ff ff       	callq  400d70 <signal@plt>
  402c3b:	be 01 00 00 00       	mov    $0x1,%esi
  402c40:	bf 1d 00 00 00       	mov    $0x1d,%edi
  402c45:	e8 26 e1 ff ff       	callq  400d70 <signal@plt>
  402c4a:	be 01 00 00 00       	mov    $0x1,%esi
  402c4f:	bf 1d 00 00 00       	mov    $0x1d,%edi
  402c54:	e8 17 e1 ff ff       	callq  400d70 <signal@plt>
  402c59:	ba 00 00 00 00       	mov    $0x0,%edx
  402c5e:	be 01 00 00 00       	mov    $0x1,%esi
  402c63:	bf 02 00 00 00       	mov    $0x2,%edi
  402c68:	e8 43 e2 ff ff       	callq  400eb0 <socket@plt>
  402c6d:	85 c0                	test   %eax,%eax
  402c6f:	79 4f                	jns    402cc0 <init_driver+0xad>
  402c71:	48 b8 45 72 72 6f 72 	movabs $0x43203a726f727245,%rax
  402c78:	3a 20 43 
  402c7b:	48 89 45 00          	mov    %rax,0x0(%rbp)
  402c7f:	48 b8 6c 69 65 6e 74 	movabs $0x6e7520746e65696c,%rax
  402c86:	20 75 6e 
  402c89:	48 89 45 08          	mov    %rax,0x8(%rbp)
  402c8d:	48 b8 61 62 6c 65 20 	movabs $0x206f7420656c6261,%rax
  402c94:	74 6f 20 
  402c97:	48 89 45 10          	mov    %rax,0x10(%rbp)
  402c9b:	48 b8 63 72 65 61 74 	movabs $0x7320657461657263,%rax
  402ca2:	65 20 73 
  402ca5:	48 89 45 18          	mov    %rax,0x18(%rbp)
  402ca9:	c7 45 20 6f 63 6b 65 	movl   $0x656b636f,0x20(%rbp)
  402cb0:	66 c7 45 24 74 00    	movw   $0x74,0x24(%rbp)
  402cb6:	b8 ff ff ff ff       	mov    $0xffffffff,%eax
  402cbb:	e9 2a 01 00 00       	jmpq   402dea <init_driver+0x1d7>
  402cc0:	89 c3                	mov    %eax,%ebx
  402cc2:	bf 45 37 40 00       	mov    $0x403745,%edi
  402cc7:	e8 b4 e0 ff ff       	callq  400d80 <gethostbyname@plt>
  402ccc:	48 85 c0             	test   %rax,%rax
  402ccf:	75 68                	jne    402d39 <init_driver+0x126>
  402cd1:	48 b8 45 72 72 6f 72 	movabs $0x44203a726f727245,%rax
  402cd8:	3a 20 44 
  402cdb:	48 89 45 00          	mov    %rax,0x0(%rbp)
  402cdf:	48 b8 4e 53 20 69 73 	movabs $0x6e7520736920534e,%rax
  402ce6:	20 75 6e 
  402ce9:	48 89 45 08          	mov    %rax,0x8(%rbp)
  402ced:	48 b8 61 62 6c 65 20 	movabs $0x206f7420656c6261,%rax
  402cf4:	74 6f 20 
  402cf7:	48 89 45 10          	mov    %rax,0x10(%rbp)
  402cfb:	48 b8 72 65 73 6f 6c 	movabs $0x2065766c6f736572,%rax
  402d02:	76 65 20 
  402d05:	48 89 45 18          	mov    %rax,0x18(%rbp)
  402d09:	48 b8 73 65 72 76 65 	movabs $0x6120726576726573,%rax
  402d10:	72 20 61 
  402d13:	48 89 45 20          	mov    %rax,0x20(%rbp)
  402d17:	c7 45 28 64 64 72 65 	movl   $0x65726464,0x28(%rbp)
  402d1e:	66 c7 45 2c 73 73    	movw   $0x7373,0x2c(%rbp)
  402d24:	c6 45 2e 00          	movb   $0x0,0x2e(%rbp)
  402d28:	89 df                	mov    %ebx,%edi
  402d2a:	e8 11 e0 ff ff       	callq  400d40 <close@plt>
  402d2f:	b8 ff ff ff ff       	mov    $0xffffffff,%eax
  402d34:	e9 b1 00 00 00       	jmpq   402dea <init_driver+0x1d7>
  402d39:	48 c7 04 24 00 00 00 	movq   $0x0,(%rsp)
  402d40:	00 
  402d41:	48 c7 44 24 08 00 00 	movq   $0x0,0x8(%rsp)
  402d48:	00 00 
  402d4a:	66 c7 04 24 02 00    	movw   $0x2,(%rsp)
  402d50:	48 63 50 14          	movslq 0x14(%rax),%rdx
  402d54:	48 8b 40 18          	mov    0x18(%rax),%rax
  402d58:	48 8b 30             	mov    (%rax),%rsi
  402d5b:	48 8d 7c 24 04       	lea    0x4(%rsp),%rdi
  402d60:	b9 0c 00 00 00       	mov    $0xc,%ecx
  402d65:	e8 26 e0 ff ff       	callq  400d90 <__memmove_chk@plt>
  402d6a:	66 c7 44 24 02 3c 9a 	movw   $0x9a3c,0x2(%rsp)
  402d71:	ba 10 00 00 00       	mov    $0x10,%edx
  402d76:	48 89 e6             	mov    %rsp,%rsi
  402d79:	89 df                	mov    %ebx,%edi
  402d7b:	e8 00 e1 ff ff       	callq  400e80 <connect@plt>
  402d80:	85 c0                	test   %eax,%eax
  402d82:	79 50                	jns    402dd4 <init_driver+0x1c1>
  402d84:	48 b8 45 72 72 6f 72 	movabs $0x55203a726f727245,%rax
  402d8b:	3a 20 55 
  402d8e:	48 89 45 00          	mov    %rax,0x0(%rbp)
  402d92:	48 b8 6e 61 62 6c 65 	movabs $0x6f7420656c62616e,%rax
  402d99:	20 74 6f 
  402d9c:	48 89 45 08          	mov    %rax,0x8(%rbp)
  402da0:	48 b8 20 63 6f 6e 6e 	movabs $0x7463656e6e6f6320,%rax
  402da7:	65 63 74 
  402daa:	48 89 45 10          	mov    %rax,0x10(%rbp)
  402dae:	48 b8 20 74 6f 20 73 	movabs $0x76726573206f7420,%rax
  402db5:	65 72 76 
  402db8:	48 89 45 18          	mov    %rax,0x18(%rbp)
  402dbc:	66 c7 45 20 65 72    	movw   $0x7265,0x20(%rbp)
  402dc2:	c6 45 22 00          	movb   $0x0,0x22(%rbp)
  402dc6:	89 df                	mov    %ebx,%edi
  402dc8:	e8 73 df ff ff       	callq  400d40 <close@plt>
  402dcd:	b8 ff ff ff ff       	mov    $0xffffffff,%eax
  402dd2:	eb 16                	jmp    402dea <init_driver+0x1d7>
  402dd4:	89 df                	mov    %ebx,%edi
  402dd6:	e8 65 df ff ff       	callq  400d40 <close@plt>
  402ddb:	66 c7 45 00 4f 4b    	movw   $0x4b4f,0x0(%rbp)
  402de1:	c6 45 02 00          	movb   $0x0,0x2(%rbp)
  402de5:	b8 00 00 00 00       	mov    $0x0,%eax
  402dea:	48 8b 4c 24 18       	mov    0x18(%rsp),%rcx
  402def:	64 48 33 0c 25 28 00 	xor    %fs:0x28,%rcx
  402df6:	00 00 
  402df8:	74 05                	je     402dff <init_driver+0x1ec>
  402dfa:	e8 01 df ff ff       	callq  400d00 <__stack_chk_fail@plt>
  402dff:	48 83 c4 28          	add    $0x28,%rsp
  402e03:	5b                   	pop    %rbx
  402e04:	5d                   	pop    %rbp
  402e05:	c3                   	retq   

0000000000402e06 <driver_post>:
  402e06:	53                   	push   %rbx
  402e07:	4c 89 cb             	mov    %r9,%rbx
  402e0a:	45 85 c0             	test   %r8d,%r8d
  402e0d:	74 27                	je     402e36 <driver_post+0x30>
  402e0f:	48 89 ca             	mov    %rcx,%rdx
  402e12:	be 55 37 40 00       	mov    $0x403755,%esi
  402e17:	bf 01 00 00 00       	mov    $0x1,%edi
  402e1c:	b8 00 00 00 00       	mov    $0x0,%eax
  402e21:	e8 fa df ff ff       	callq  400e20 <__printf_chk@plt>
  402e26:	66 c7 03 4f 4b       	movw   $0x4b4f,(%rbx)
  402e2b:	c6 43 02 00          	movb   $0x0,0x2(%rbx)
  402e2f:	b8 00 00 00 00       	mov    $0x0,%eax
  402e34:	eb 3f                	jmp    402e75 <driver_post+0x6f>
  402e36:	48 85 ff             	test   %rdi,%rdi
  402e39:	74 2c                	je     402e67 <driver_post+0x61>
  402e3b:	80 3f 00             	cmpb   $0x0,(%rdi)
  402e3e:	74 27                	je     402e67 <driver_post+0x61>
  402e40:	48 83 ec 08          	sub    $0x8,%rsp
  402e44:	41 51                	push   %r9
  402e46:	49 89 c9             	mov    %rcx,%r9
  402e49:	49 89 d0             	mov    %rdx,%r8
  402e4c:	48 89 f9             	mov    %rdi,%rcx
  402e4f:	48 89 f2             	mov    %rsi,%rdx
  402e52:	be 9a 3c 00 00       	mov    $0x3c9a,%esi
  402e57:	bf 45 37 40 00       	mov    $0x403745,%edi
  402e5c:	e8 28 f6 ff ff       	callq  402489 <submitr>
  402e61:	48 83 c4 10          	add    $0x10,%rsp
  402e65:	eb 0e                	jmp    402e75 <driver_post+0x6f>
  402e67:	66 c7 03 4f 4b       	movw   $0x4b4f,(%rbx)
  402e6c:	c6 43 02 00          	movb   $0x0,0x2(%rbx)
  402e70:	b8 00 00 00 00       	mov    $0x0,%eax
  402e75:	5b                   	pop    %rbx
  402e76:	c3                   	retq   

0000000000402e77 <check>:
  402e77:	89 f8                	mov    %edi,%eax
  402e79:	c1 e8 1c             	shr    $0x1c,%eax
  402e7c:	85 c0                	test   %eax,%eax
  402e7e:	74 1d                	je     402e9d <check+0x26>
  402e80:	b9 00 00 00 00       	mov    $0x0,%ecx
  402e85:	eb 0b                	jmp    402e92 <check+0x1b>
  402e87:	89 f8                	mov    %edi,%eax
  402e89:	d3 e8                	shr    %cl,%eax
  402e8b:	3c 0a                	cmp    $0xa,%al
  402e8d:	74 14                	je     402ea3 <check+0x2c>
  402e8f:	83 c1 08             	add    $0x8,%ecx
  402e92:	83 f9 1f             	cmp    $0x1f,%ecx
  402e95:	7e f0                	jle    402e87 <check+0x10>
  402e97:	b8 01 00 00 00       	mov    $0x1,%eax
  402e9c:	c3                   	retq   
  402e9d:	b8 00 00 00 00       	mov    $0x0,%eax
  402ea2:	c3                   	retq   
  402ea3:	b8 00 00 00 00       	mov    $0x0,%eax
  402ea8:	c3                   	retq   

0000000000402ea9 <gencookie>:
  402ea9:	53                   	push   %rbx
  402eaa:	83 c7 01             	add    $0x1,%edi
  402ead:	e8 fe dd ff ff       	callq  400cb0 <srandom@plt>
  402eb2:	e8 29 df ff ff       	callq  400de0 <random@plt>
  402eb7:	89 c3                	mov    %eax,%ebx
  402eb9:	89 c7                	mov    %eax,%edi
  402ebb:	e8 b7 ff ff ff       	callq  402e77 <check>
  402ec0:	85 c0                	test   %eax,%eax
  402ec2:	74 ee                	je     402eb2 <gencookie+0x9>
  402ec4:	89 d8                	mov    %ebx,%eax
  402ec6:	5b                   	pop    %rbx
  402ec7:	c3                   	retq   
  402ec8:	0f 1f 84 00 00 00 00 	nopl   0x0(%rax,%rax,1)
  402ecf:	00 

0000000000402ed0 <__libc_csu_init>:
  402ed0:	41 57                	push   %r15
  402ed2:	41 89 ff             	mov    %edi,%r15d
  402ed5:	41 56                	push   %r14
  402ed7:	49 89 f6             	mov    %rsi,%r14
  402eda:	41 55                	push   %r13
  402edc:	49 89 d5             	mov    %rdx,%r13
  402edf:	41 54                	push   %r12
  402ee1:	4c 8d 25 28 1f 20 00 	lea    0x201f28(%rip),%r12        # 604e10 <__frame_dummy_init_array_entry>
  402ee8:	55                   	push   %rbp
  402ee9:	48 8d 2d 28 1f 20 00 	lea    0x201f28(%rip),%rbp        # 604e18 <__init_array_end>
  402ef0:	53                   	push   %rbx
  402ef1:	4c 29 e5             	sub    %r12,%rbp
  402ef4:	31 db                	xor    %ebx,%ebx
  402ef6:	48 c1 fd 03          	sar    $0x3,%rbp
  402efa:	48 83 ec 08          	sub    $0x8,%rsp
  402efe:	e8 5d dd ff ff       	callq  400c60 <_init>
  402f03:	48 85 ed             	test   %rbp,%rbp
  402f06:	74 1e                	je     402f26 <__libc_csu_init+0x56>
  402f08:	0f 1f 84 00 00 00 00 	nopl   0x0(%rax,%rax,1)
  402f0f:	00 
  402f10:	4c 89 ea             	mov    %r13,%rdx
  402f13:	4c 89 f6             	mov    %r14,%rsi
  402f16:	44 89 ff             	mov    %r15d,%edi
  402f19:	41 ff 14 dc          	callq  *(%r12,%rbx,8)
  402f1d:	48 83 c3 01          	add    $0x1,%rbx
  402f21:	48 39 eb             	cmp    %rbp,%rbx
  402f24:	75 ea                	jne    402f10 <__libc_csu_init+0x40>
  402f26:	48 83 c4 08          	add    $0x8,%rsp
  402f2a:	5b                   	pop    %rbx
  402f2b:	5d                   	pop    %rbp
  402f2c:	41 5c                	pop    %r12
  402f2e:	41 5d                	pop    %r13
  402f30:	41 5e                	pop    %r14
  402f32:	41 5f                	pop    %r15
  402f34:	c3                   	retq   
  402f35:	66 66 2e 0f 1f 84 00 	data32 nopw %cs:0x0(%rax,%rax,1)
  402f3c:	00 00 00 00 

0000000000402f40 <__libc_csu_fini>:
  402f40:	f3 c3                	repz retq 

Disassembly of section .fini:

0000000000402f44 <_fini>:
  402f44:	48 83 ec 08          	sub    $0x8,%rsp
  402f48:	48 83 c4 08          	add    $0x8,%rsp
  402f4c:	c3                   	retq   
